Certificate:
    Data:
        Version: 3 (0x2)
        Serial Number:
            14:4f:52:62:0a:35:4e:21:6c:41:76:b3:b3:51:48:0f:47:c9:c8:6d
        Signature Algorithm: sha1WithRSA
        Issuer: CN = SHA1 with RSA encryption alternate OID
        Validity
            Not Before: Dec 30 20:20:14 2019 GMT
            Not After : Dec  6 20:20:14 2119 GMT
        Subject: CN = SHA1 with RSA encryption alternate OID
        Subject Public Key Info:
            Public Key Algorithm: rsaEncryption
                RSA Public-Key: (768 bit)
                Modulus:
                    00:db:55:22:d3:b7:48:83:86:cf:ac:d6:4b:76:ec:
                    e3:31:3c:bd:0b:7b:c3:67:6c:5b:90:81:02:63:a0:
                    7f:77:a1:e9:31:7f:64:55:21:56:af:e8:3b:a3:02:
                    02:72:3b:bf:43:ea:b3:f7:ba:d6:59:d5:fe:89:0e:
                    07:a4:ae:ef:52:e5:4b:d1:4d:85:53:07:d5:ff:80:
                    96:bf:bd:fb:c7:48:49:d2:4e:85:82:3e:7f:2a:d3:
                    f9:cd:f4:f0:f7:ac:51
                Exponent: 65537 (0x10001)
        X509v3 extensions:
            X509v3 Subject Key Identifier:
                D6:71:1C:31:C6:C3:C4:D3:88:32:64:67:1F:9E:BE:FF:77:1D:8A:DE
            X509v3 Authority Key Identifier:
                keyid:D6:71:1C:31:C6:C3:C4:D3:88:32:64:67:1F:9E:BE:FF:77:1D:8A:DE

            X509v3 Basic Constraints: critical
                CA:TRUE
    Signature Algorithm: sha1WithRSA
         44:5d:23:63:14:06:26:35:ac:31:3a:de:f7:67:3e:8e:aa:d4:
         03:56:ac:49:b3:65:65:a0:0a:d3:9a:b9:2e:aa:d2:dd:c3:5e:
         31:ea:f7:77:0d:8c:0b:83:f4:3d:9d:e0:1f:16:cd:42:39:ce:
         5b:4a:ac:d9:95:a6:ed:d9:51:33:9d:2a:9a:e5:05:fa:67:0d:
         37:38:3e:82:21:75:2d:a1:70:a7:62:5f:e8:b3:d6:93:51:12:
         12:b5:c9:dd:e5:3c
-----BEGIN CERTIFICATE-----
MIIB8zCCAYGgAwIBAgIUFE9SYgo1TiFsQXazs1FID0fJyG0wCQYFKw4DAh0FADAx
MS8wLQYDVQQDDCZTSEExIHdpdGggUlNBIGVuY3J5cHRpb24gYWx0ZXJuYXRlIE9J
RDAgFw0xOTEyMzAyMDIwMTRaGA8yMTE5MTIwNjIwMjAxNFowMTEvMC0GA1UEAwwm
U0hBMSB3aXRoIFJTQSBlbmNyeXB0aW9uIGFsdGVybmF0ZSBPSUQwfDANBgkqhkiG
9w0BAQEFAANrADBoAmEA21Ui07dIg4bPrNZLduzjMTy9C3vDZ2xbkIECY6B/d6Hp
MX9kVSFWr+g7owICcju/Q+qz97rWWdX+iQ4HpK7vUuVL0U2FUwfV/4CWv737x0hJ
0k6Fgj5/KtP5zfTw96xRAgMBAAGjUzBRMB0GA1UdDgQWBBTWcRwxxsPE04gyZGcf
nr7/dx2K3jAfBgNVHSMEGDAWgBTWcRwxxsPE04gyZGcfnr7/dx2K3jAPBgNVHRMB
Af8EBTADAQH/MAkGBSsOAwIdBQADYQBEXSNjFAYmNawxOt73Zz6OqtQDVqxJs2Vl
oArTmrkuqtLdw14x6vd3DYwLg/Q9neAfFs1COc5bSqzZlabt2VEznSqa5QX6Zw03
OD6CIXUtoXCnYl/os9aTURIStcnd5Tw=
-----END CERTIFICATE-----
