Certificate:
    Data:
        Version: 3 (0x2)
        Serial Number: 40 (0x28)
        Signature Algorithm: ecdsa-with-SHA256
        Issuer: CN = CA that has validity year 2000
        Validity
            Not Before: Jan  1 00:00:00 2000 GMT
            Not After : Dec 31 23:59:59 2000 GMT
        Subject: CN = Authority Key Identifier: serial mismatch
        Subject Public Key Info:
            Public Key Algorithm: id-ecPublicKey
                Public-Key: (112 bit)
                pub:
                    04:2f:d7:ed:b4:8b:0e:82:40:06:07:c5:c4:ab:25:
                    d7:27:d3:54:05:a1:9b:f0:51:23:08:fe:af:96
                ASN1 OID: secp112r1
        X509v3 extensions:
            X509v3 Subject Key Identifier:
                AB:AB:AB:AB:AB:AB:AB:AB:AB:AB:12:34:56:78:90
            X509v3 Authority Key Identifier:
                serial:30:39

            X509v3 Basic Constraints: critical
                CA:TRUE
    Signature Algorithm: ecdsa-with-SHA256
         30:21:02:0f:00:97:79:29:82:f3:dc:33:8a:4a:bb:e6:fc:7e:
         4f:02:0e:7e:76:9b:eb:2c:82:63:ab:5f:10:6d:95:10:bb
-----BEGIN CERTIFICATE-----
MIIBPTCCAQegAwIBAgIBKDAKBggqhkjOPQQDAjApMScwJQYDVQQDDB5DQSB0aGF0
IGhhcyB2YWxpZGl0eSB5ZWFyIDIwMDAwHhcNMDAwMTAxMDAwMDAwWhcNMDAxMjMx
MjM1OTU5WjA0MTIwMAYDVQQDDClBdXRob3JpdHkgS2V5IElkZW50aWZpZXI6IHNl
cmlhbCBtaXNtYXRjaDAyMBAGByqGSM49AgEGBSuBBAAGAx4ABC/X7bSLDoJABgfF
xKsl1yfTVAWhm/BRIwj+r5ajPDA6MBgGA1UdDgQRBA+rq6urq6urq6urEjRWeJAw
DQYDVR0jBAYwBIICMDkwDwYDVR0TAQH/BAUwAwEB/zAKBggqhkjOPQQDAgMkADAh
Ag8Al3kpgvPcM4pKu+b8fk8CDn52m+ssgmOrXxBtlRC7
-----END CERTIFICATE-----
