Certificate:
    Data:
        Version: 3 (0x2)
        Serial Number:
            28:1a:d6:fd:b4:90:53:3f:2d:1d:e6:3f:39:49:db:e9:c8:2b:3a:aa
        Signature Algorithm: ecdsa-with-SHA256
        Issuer: CN = CA that has validity year 2000
        Validity
            Not Before: Jan  1 00:00:00 2000 GMT
            Not After : Dec 31 23:59:59 2000 GMT
        Subject: CN = Authority Key Identifier: CAname mismatch
        Subject Public Key Info:
            Public Key Algorithm: id-ecPublicKey
                Public-Key: (112 bit)
                pub:
                    04:2f:d7:ed:b4:8b:0e:82:40:06:07:c5:c4:ab:25:
                    d7:27:d3:54:05:a1:9b:f0:51:23:08:fe:af:96
                ASN1 OID: secp112r1
        X509v3 extensions:
            X509v3 Subject Key Identifier:
                AB:AB:AB:AB:AB:AB:AB:AB:AB:AB:12:34:56:78:90
            X509v3 Authority Key Identifier:
                DirName:/C=DE/CN=Third CA name
                DirName:/CN=CA that has validity year XXXX
                DirName:/CN=Some other CA name

            X509v3 Basic Constraints: critical
                CA:TRUE
    Signature Algorithm: ecdsa-with-SHA256
         30:21:02:0f:00:97:79:29:82:f3:dc:33:8a:4a:bb:e6:fc:7e:
         4f:02:0e:7e:76:9b:eb:2c:82:63:ab:5f:10:6d:95:10:bb
-----BEGIN CERTIFICATE-----
MIIBxjCCAZCgAwIBAgIUKBrW/bSQUz8tHeY/OUnb6cgrOqowCgYIKoZIzj0EAwIw
KTEnMCUGA1UEAwweQ0EgdGhhdCBoYXMgdmFsaWRpdHkgeWVhciAyMDAwMB4XDTAw
MDEwMTAwMDAwMFoXDTAwMTIzMTIzNTk1OVowNDEyMDAGA1UEAwwpQXV0aG9yaXR5
IEtleSBJZGVudGlmaWVyOiBDQW5hbWUgbWlzbWF0Y2gwMjAQBgcqhkjOPQIBBgUr
gQQABgMeAAQv1+20iw6CQAYHxcSrJdcn01QFoZvwUSMI/q+Wo4GxMIGuMBgGA1Ud
DgQRBA+rq6urq6urq6urEjRWeJAwgYAGA1UdIwR5MHehdaQlMCMxITAJBgNVBAYT
AkRFMBQGA1UEAxMNVGhpcmQgQ0EgbmFtZaQrMCkxJzAlBgNVBAMTHkNBIHRoYXQg
aGFzIHZhbGlkaXR5IHllYXIgWFhYWKQfMB0xGzAZBgNVBAMTElNvbWUgb3RoZXIg
Q0EgbmFtZTAPBgNVHRMBAf8EBTADAQH/MAoGCCqGSM49BAMCAyQAMCECDwCXeSmC
89wzikq75vx+TwIOfnab6yyCY6tfEG2VELs=
-----END CERTIFICATE-----
