Certificate:
    Data:
        Version: 3 (0x2)
        Serial Number: 40 (0x28)
        Signature Algorithm: ecdsa-with-SHA256
        Issuer: CN = CA that has validity year 2000
        Validity
            Not Before: Jan  1 00:00:00 2000 GMT
            Not After : Dec 31 23:59:59 2000 GMT
        Subject: CN = Authority Key Identifier: serial match
        Subject Public Key Info:
            Public Key Algorithm: id-ecPublicKey
                Public-Key: (112 bit)
                pub:
                    04:2f:d7:ed:b4:8b:0e:82:40:06:07:c5:c4:ab:25:
                    d7:27:d3:54:05:a1:9b:f0:51:23:08:fe:af:96
                ASN1 OID: secp112r1
        X509v3 extensions:
            X509v3 Subject Key Identifier:
                AB:AB:AB:AB:AB:AB:AB:AB:AB:AB:12:34:56:78:90
            X509v3 Authority Key Identifier:
                serial:28:1A:D6:FD:B4:90:53:3F:2D:1D:E6:3F:39:49:DB:E9:C8:2B:3A:AA

            X509v3 Basic Constraints: critical
                CA:TRUE
    Signature Algorithm: ecdsa-with-SHA256
         30:21:02:0f:00:97:79:29:82:f3:dc:33:8a:4a:bb:e6:fc:7e:
         4f:02:0e:7e:76:9b:eb:2c:82:63:ab:5f:10:6d:95:10:bb
-----BEGIN CERTIFICATE-----
MIIBTDCCARagAwIBAgIBKDAKBggqhkjOPQQDAjApMScwJQYDVQQDDB5DQSB0aGF0
IGhhcyB2YWxpZGl0eSB5ZWFyIDIwMDAwHhcNMDAwMTAxMDAwMDAwWhcNMDAxMjMx
MjM1OTU5WjAxMS8wLQYDVQQDDCZBdXRob3JpdHkgS2V5IElkZW50aWZpZXI6IHNl
cmlhbCBtYXRjaDAyMBAGByqGSM49AgEGBSuBBAAGAx4ABC/X7bSLDoJABgfFxKsl
1yfTVAWhm/BRIwj+r5ajTjBMMBgGA1UdDgQRBA+rq6urq6urq6urEjRWeJAwHwYD
VR0jBBgwFoIUKBrW/bSQUz8tHeY/OUnb6cgrOqowDwYDVR0TAQH/BAUwAwEB/zAK
BggqhkjOPQQDAgMkADAhAg8Al3kpgvPcM4pKu+b8fk8CDn52m+ssgmOrXxBtlRC7
-----END CERTIFICATE-----
