Certificate:
    Data:
        Version: 3 (0x2)
        Serial Number:
            28:1a:d6:fd:b4:90:53:3f:2d:1d:e6:3f:39:49:db:e9:c8:2b:3a:aa
        Signature Algorithm: ecdsa-with-SHA256
        Issuer: CN = X.509 Certificate Policies: Policy count 2
        Validity
            Not Before: Jan  4 09:44:46 2020 GMT
            Not After : Dec 11 09:44:46 2119 GMT
        Subject: CN = X.509 Certificate Policies: Policy count 2
        Subject Public Key Info:
            Public Key Algorithm: id-ecPublicKey
                Public-Key: (112 bit)
                pub:
                    04:2f:d7:ed:b4:8b:0e:82:40:06:07:c5:c4:ab:25:
                    d7:27:d3:54:05:a1:9b:f0:51:23:08:fe:af:96
                ASN1 OID: secp112r1
        X509v3 extensions:
            X509v3 Subject Key Identifier:
                05:82:46:02:E9:30:6E:6A:83:85:7C:43:07:A7:69:2F:24:B4:B3:17
            X509v3 Authority Key Identifier:
                keyid:05:82:46:02:E9:30:6E:6A:83:85:7C:43:07:A7:69:2F:24:B4:B3:17

            X509v3 Certificate Policies:
                Policy: 2.23.140.1.2.1
                Policy: 1.3.6.1.4.1.44947.1.1.1
                  CPS: http://cps.letsencrypt.org
                  User Notice:
                    Explicit Text: This Certificate may only be relied upon by Relying Parties and only in accordance with the Certificate Policy found at https://letsencrypt.org/repository/

            X509v3 Basic Constraints: critical
                CA:TRUE
    Signature Algorithm: ecdsa-with-SHA256
         30:21:02:0f:00:97:79:29:82:f3:dc:33:8a:4a:bb:e6:fc:7e:
         4f:02:0e:7e:76:9b:eb:2c:82:63:ab:5f:10:6d:95:10:bb
-----BEGIN CERTIFICATE-----
MIICezCCAkWgAwIBAgIUKBrW/bSQUz8tHeY/OUnb6cgrOqowCgYIKoZIzj0EAwIw
NTEzMDEGA1UEAwwqWC41MDkgQ2VydGlmaWNhdGUgUG9saWNpZXM6IFBvbGljeSBj
b3VudCAyMCAXDTIwMDEwNDA5NDQ0NloYDzIxMTkxMjExMDk0NDQ2WjA1MTMwMQYD
VQQDDCpYLjUwOSBDZXJ0aWZpY2F0ZSBQb2xpY2llczogUG9saWN5IGNvdW50IDIw
MjAQBgcqhkjOPQIBBgUrgQQABgMeAAQv1+20iw6CQAYHxcSrJdcn01QFoZvwUSMI
/q+Wo4IBVjCCAVIwHQYDVR0OBBYEFAWCRgLpMG5qg4V8QwenaS8ktLMXMB8GA1Ud
IwQYMBaAFAWCRgLpMG5qg4V8QwenaS8ktLMXMIH+BgNVHSAEgfYwgfMwCAYGZ4EM
AQIBMIHmBgsrBgEEAYLfEwEBATCB1jAmBggrBgEFBQcCARYaaHR0cDovL2Nwcy5s
ZXRzZW5jcnlwdC5vcmcwgasGCCsGAQUFBwICMIGeDIGbVGhpcyBDZXJ0aWZpY2F0
ZSBtYXkgb25seSBiZSByZWxpZWQgdXBvbiBieSBSZWx5aW5nIFBhcnRpZXMgYW5k
IG9ubHkgaW4gYWNjb3JkYW5jZSB3aXRoIHRoZSBDZXJ0aWZpY2F0ZSBQb2xpY3kg
Zm91bmQgYXQgaHR0cHM6Ly9sZXRzZW5jcnlwdC5vcmcvcmVwb3NpdG9yeS8wDwYD
VR0TAQH/BAUwAwEB/zAKBggqhkjOPQQDAgMkADAhAg8Al3kpgvPcM4pKu+b8fk8C
Dn52m+ssgmOrXxBtlRC7
-----END CERTIFICATE-----
