Certificate:
    Data:
        Version: 3 (0x2)
        Serial Number:
            28:1a:d6:fd:b4:90:53:3f:2d:1d:e6:3f:39:49:db:e9:c8:2b:3a:aa
        Signature Algorithm: ecdsa-with-SHA256
        Issuer: CN = X.509 Certificate Policies: CPS constraint violation (UTF8String instead of IA5String)
        Validity
            Not Before: Jan  4 09:44:46 2020 GMT
            Not After : Dec 11 09:44:46 2119 GMT
        Subject: CN = X.509 Certificate Policies: CPS constraint violation (UTF8String instead of IA5String)
        Subject Public Key Info:
            Public Key Algorithm: id-ecPublicKey
                Public-Key: (112 bit)
                pub:
                    04:2f:d7:ed:b4:8b:0e:82:40:06:07:c5:c4:ab:25:
                    d7:27:d3:54:05:a1:9b:f0:51:23:08:fe:af:96
                ASN1 OID: secp112r1
        X509v3 extensions:
            X509v3 Subject Key Identifier:
                05:82:46:02:E9:30:6E:6A:83:85:7C:43:07:A7:69:2F:24:B4:B3:17
            X509v3 Authority Key Identifier:
                keyid:05:82:46:02:E9:30:6E:6A:83:85:7C:43:07:A7:69:2F:24:B4:B3:17

            X509v3 Certificate Policies:
                0..0...g.....0....+..........0..0&..+.........http://cps.letsencrypt.org0....+.......0.....This Certificate may only be relied upon by Relying Parties and only in accordance with the Certificate Policy found at https://letsencrypt.org/repository/
            X509v3 Basic Constraints: critical
                CA:TRUE
    Signature Algorithm: ecdsa-with-SHA256
         30:21:02:0f:00:97:79:29:82:f3:dc:33:8a:4a:bb:e6:fc:7e:
         4f:02:0e:7e:76:9b:eb:2c:82:63:ab:5f:10:6d:95:10:bb
-----BEGIN CERTIFICATE-----
MIIC0zCCAp2gAwIBAgIUKBrW/bSQUz8tHeY/OUnb6cgrOqowCgYIKoZIzj0EAwIw
YTFfMF0GA1UEAwxWWC41MDkgQ2VydGlmaWNhdGUgUG9saWNpZXM6IENQUyBjb25z
dHJhaW50IHZpb2xhdGlvbiAoVVRGOFN0cmluZyBpbnN0ZWFkIG9mIElBNVN0cmlu
ZykwIBcNMjAwMTA0MDk0NDQ2WhgPMjExOTEyMTEwOTQ0NDZaMGExXzBdBgNVBAMM
VlguNTA5IENlcnRpZmljYXRlIFBvbGljaWVzOiBDUFMgY29uc3RyYWludCB2aW9s
YXRpb24gKFVURjhTdHJpbmcgaW5zdGVhZCBvZiBJQTVTdHJpbmcpMDIwEAYHKoZI
zj0CAQYFK4EEAAYDHgAEL9fttIsOgkAGB8XEqyXXJ9NUBaGb8FEjCP6vlqOCAVYw
ggFSMB0GA1UdDgQWBBQFgkYC6TBuaoOFfEMHp2kvJLSzFzAfBgNVHSMEGDAWgBQF
gkYC6TBuaoOFfEMHp2kvJLSzFzCB/gYDVR0gBIH2MIHzMAgGBmeBDAECATCB5gYL
KwYBBAGC3xMBAQEwgdYwJgYIKwYBBQUHAgEMGmh0dHA6Ly9jcHMubGV0c2VuY3J5
cHQub3JnMIGrBggrBgEFBQcCAjCBngyBm1RoaXMgQ2VydGlmaWNhdGUgbWF5IG9u
bHkgYmUgcmVsaWVkIHVwb24gYnkgUmVseWluZyBQYXJ0aWVzIGFuZCBvbmx5IGlu
IGFjY29yZGFuY2Ugd2l0aCB0aGUgQ2VydGlmaWNhdGUgUG9saWN5IGZvdW5kIGF0
IGh0dHBzOi8vbGV0c2VuY3J5cHQub3JnL3JlcG9zaXRvcnkvMA8GA1UdEwEB/wQF
MAMBAf8wCgYIKoZIzj0EAwIDJAAwIQIPAJd5KYLz3DOKSrvm/H5PAg5+dpvrLIJj
q18QbZUQuw==
-----END CERTIFICATE-----
