Certificate:
    Data:
        Version: 3 (0x2)
        Serial Number:
            28:1a:d6:fd:b4:90:53:3f:2d:1d:e6:3f:39:49:db:e9:c8:2b:3a:aa
        Signature Algorithm: ecdsa-with-SHA256
        Issuer: CN = CRL Distribution Points: TODO
        Validity
            Not Before: Jan  4 09:44:46 2020 GMT
            Not After : Dec 11 09:44:46 2119 GMT
        Subject: CN = CRL Distribution Points: TODO
        Subject Public Key Info:
            Public Key Algorithm: id-ecPublicKey
                Public-Key: (112 bit)
                pub:
                    04:2f:d7:ed:b4:8b:0e:82:40:06:07:c5:c4:ab:25:
                    d7:27:d3:54:05:a1:9b:f0:51:23:08:fe:af:96
                ASN1 OID: secp112r1
        X509v3 extensions:
            X509v3 Subject Key Identifier:
                05:82:46:02:E9:30:6E:6A:83:85:7C:43:07:A7:69:2F:24:B4:B3:17
            X509v3 Authority Key Identifier:
                keyid:05:82:46:02:E9:30:6E:6A:83:85:7C:43:07:A7:69:2F:24:B4:B3:17

            X509v3 CRL Distribution Points:

                Full Name:
                  email:email@addr
                  DNS:dNSDomain
                  DirName:CN = directoryName
                  URI:http://uri
                  IP Address:192.168.66.66
                Reasons:
                  Unused, Key Compromise, CA Compromise, Affiliation Changed, Superseded, Cessation Of Operation, Certificate Hold, Privilege Withdrawn
                CRL Issuer:
                  email:email@addr
                  email:email@addr
                  email:email@addr
                  email:email@addr

                Reasons:
                  Unused, Key Compromise, CA Compromise, Affiliation Changed, Superseded, Cessation Of Operation, Certificate Hold, Privilege Withdrawn, AA Compromise
                CRL Issuer:
                  email:email@addr
                  DNS:dNSDomain
                  DirName:CN = directoryName
                  URI:http://uri
                  IP Address:192.168.66.66

                Relative Name:
                  CN = Relativey + C = US

                Reasons:
                  Unused, Key Compromise, CA Compromise, Affiliation Changed, Superseded, Cessation Of Operation, Certificate Hold, Privilege Withdrawn, AA Compromise

            X509v3 Basic Constraints: critical
                CA:TRUE
    Signature Algorithm: ecdsa-with-SHA256
         30:21:02:0f:00:97:79:29:82:f3:dc:33:8a:4a:bb:e6:fc:7e:
         4f:02:0e:7e:76:9b:eb:2c:82:63:ab:5f:10:6d:95:10:bb
-----BEGIN CERTIFICATE-----
MIICcTCCAjugAwIBAgIUKBrW/bSQUz8tHeY/OUnb6cgrOqowCgYIKoZIzj0EAwIw
KDEmMCQGA1UEAwwdQ1JMIERpc3RyaWJ1dGlvbiBQb2ludHM6IFRPRE8wIBcNMjAw
MTA0MDk0NDQ2WhgPMjExOTEyMTEwOTQ0NDZaMCgxJjAkBgNVBAMMHUNSTCBEaXN0
cmlidXRpb24gUG9pbnRzOiBUT0RPMDIwEAYHKoZIzj0CAQYFK4EEAAYDHgAEL9ft
tIsOgkAGB8XEqyXXJ9NUBaGb8FEjCP6vlqOCAWYwggFiMB0GA1UdDgQWBBQFgkYC
6TBuaoOFfEMHp2kvJLSzFzAfBgNVHSMEGDAWgBQFgkYC6TBuaoOFfEMHp2kvJLSz
FzCCAQ0GA1UdHwEBAASCAQEwgf4wgYGgSaBHgQplbWFpbEBhZGRygglkTlNEb21h
aW6kGjAYMRYwFAYDVQQDEw1kaXJlY3RvcnlOYW1lhgpodHRwOi8vdXJppwYEBMCo
QkKBAgD/ojCBCmVtYWlsQGFkZHKBCmVtYWlsQGFkZHKBCmVtYWlsQGFkZHKBCmVt
YWlsQGFkZHIwToEDB/+AokeBCmVtYWlsQGFkZHKCCWROU0RvbWFpbqQaMBgxFjAU
BgNVBAMTDWRpcmVjdG9yeU5hbWWGCmh0dHA6Ly91cmmnBgQEwKhCQjAhoB+hHTAQ
BgNVBAMMCVJlbGF0aXZleTAJBgNVBAYMAlVTMAWBAwf/gDAPBgNVHRMBAf8EBTAD
AQH/MAoGCCqGSM49BAMCAyQAMCECDwCXeSmC89wzikq75vx+TwIOfnab6yyCY6tf
EG2VELs=
-----END CERTIFICATE-----
