Certificate:
    Data:
        Version: 3 (0x2)
        Serial Number:
            28:1a:d6:fd:b4:90:53:3f:2d:1d:e6:3f:39:49:db:e9:c8:2b:3a:aa
        Signature Algorithm: ecdsa-with-SHA256
        Issuer: CN = CRL Distribution Points: uncommon identifier in CRL issuer
        Validity
            Not Before: Jan  4 09:44:46 2020 GMT
            Not After : Dec 11 09:44:46 2119 GMT
        Subject: CN = CRL Distribution Points: uncommon identifier in CRL issuer
        Subject Public Key Info:
            Public Key Algorithm: id-ecPublicKey
                Public-Key: (112 bit)
                pub:
                    04:2f:d7:ed:b4:8b:0e:82:40:06:07:c5:c4:ab:25:
                    d7:27:d3:54:05:a1:9b:f0:51:23:08:fe:af:96
                ASN1 OID: secp112r1
        X509v3 extensions:
            X509v3 Subject Key Identifier:
                05:82:46:02:E9:30:6E:6A:83:85:7C:43:07:A7:69:2F:24:B4:B3:17
            X509v3 Authority Key Identifier:
                keyid:05:82:46:02:E9:30:6E:6A:83:85:7C:43:07:A7:69:2F:24:B4:B3:17

            X509v3 CRL Distribution Points:

                CRL Issuer:
                  Registered ID:1.2.3.4.5

            X509v3 Basic Constraints: critical
                CA:TRUE
    Signature Algorithm: ecdsa-with-SHA256
         30:21:02:0f:00:97:79:29:82:f3:dc:33:8a:4a:bb:e6:fc:7e:
         4f:02:0e:7e:76:9b:eb:2c:82:63:ab:5f:10:6d:95:10:bb
-----BEGIN CERTIFICATE-----
MIIBrjCCAXigAwIBAgIUKBrW/bSQUz8tHeY/OUnb6cgrOqowCgYIKoZIzj0EAwIw
RTFDMEEGA1UEAww6Q1JMIERpc3RyaWJ1dGlvbiBQb2ludHM6IHVuY29tbW9uIGlk
ZW50aWZpZXIgaW4gQ1JMIGlzc3VlcjAgFw0yMDAxMDQwOTQ0NDZaGA8yMTE5MTIx
MTA5NDQ0NlowRTFDMEEGA1UEAww6Q1JMIERpc3RyaWJ1dGlvbiBQb2ludHM6IHVu
Y29tbW9uIGlkZW50aWZpZXIgaW4gQ1JMIGlzc3VlcjAyMBAGByqGSM49AgEGBSuB
BAAGAx4ABC/X7bSLDoJABgfFxKsl1yfTVAWhm/BRIwj+r5ajazBpMB0GA1UdDgQW
BBQFgkYC6TBuaoOFfEMHp2kvJLSzFzAfBgNVHSMEGDAWgBQFgkYC6TBuaoOFfEMH
p2kvJLSzFzAWBgNVHR8BAQAEDDAKMAiiBogEKgMEBTAPBgNVHRMBAf8EBTADAQH/
MAoGCCqGSM49BAMCAyQAMCECDwCXeSmC89wzikq75vx+TwIOfnab6yyCY6tfEG2V
ELs=
-----END CERTIFICATE-----
