Certificate:
    Data:
        Version: 3 (0x2)
        Serial Number:
            28:1a:d6:fd:b4:90:53:3f:2d:1d:e6:3f:39:49:db:e9:c8:2b:3a:aa
        Signature Algorithm: ecdsa-with-SHA256
        Issuer: CN = CRL Distribution Points: No point with all reasons
        Validity
            Not Before: Jan  4 09:44:46 2020 GMT
            Not After : Dec 11 09:44:46 2119 GMT
        Subject: CN = CRL Distribution Points: No point with all reasons
        Subject Public Key Info:
            Public Key Algorithm: id-ecPublicKey
                Public-Key: (112 bit)
                pub:
                    04:2f:d7:ed:b4:8b:0e:82:40:06:07:c5:c4:ab:25:
                    d7:27:d3:54:05:a1:9b:f0:51:23:08:fe:af:96
                ASN1 OID: secp112r1
        X509v3 extensions:
            X509v3 Subject Key Identifier:
                05:82:46:02:E9:30:6E:6A:83:85:7C:43:07:A7:69:2F:24:B4:B3:17
            X509v3 Authority Key Identifier:
                keyid:05:82:46:02:E9:30:6E:6A:83:85:7C:43:07:A7:69:2F:24:B4:B3:17

            X509v3 CRL Distribution Points:

                Full Name:
                  URI:http://uri1
                Reasons:
                  Unused, Key Compromise, CA Compromise, Affiliation Changed, Superseded, Cessation Of Operation, Certificate Hold, Privilege Withdrawn

                Full Name:
                  URI:http://uri2
                Reasons:
                  Unused, Key Compromise, CA Compromise, Affiliation Changed

                Full Name:
                  URI:http://uri3
                Reasons:
                  Key Compromise

            X509v3 Basic Constraints: critical
                CA:TRUE
    Signature Algorithm: ecdsa-with-SHA256
         30:21:02:0f:00:97:79:29:82:f3:dc:33:8a:4a:bb:e6:fc:7e:
         4f:02:0e:7e:76:9b:eb:2c:82:63:ab:5f:10:6d:95:10:bb
-----BEGIN CERTIFICATE-----
MIIB2zCCAaWgAwIBAgIUKBrW/bSQUz8tHeY/OUnb6cgrOqowCgYIKoZIzj0EAwIw
PTE7MDkGA1UEAwwyQ1JMIERpc3RyaWJ1dGlvbiBQb2ludHM6IE5vIHBvaW50IHdp
dGggYWxsIHJlYXNvbnMwIBcNMjAwMTA0MDk0NDQ2WhgPMjExOTEyMTEwOTQ0NDZa
MD0xOzA5BgNVBAMMMkNSTCBEaXN0cmlidXRpb24gUG9pbnRzOiBObyBwb2ludCB3
aXRoIGFsbCByZWFzb25zMDIwEAYHKoZIzj0CAQYFK4EEAAYDHgAEL9fttIsOgkAG
B8XEqyXXJ9NUBaGb8FEjCP6vlqOBpzCBpDAdBgNVHQ4EFgQUBYJGAukwbmqDhXxD
B6dpLyS0sxcwHwYDVR0jBBgwFoAUBYJGAukwbmqDhXxDB6dpLyS0sxcwUQYDVR0f
AQEABEcwRTAVoA+gDYYLaHR0cDovL3VyaTGBAgD/MBWgD6ANhgtodHRwOi8vdXJp
MoECBPAwFaAPoA2GC2h0dHA6Ly91cmkzgQIGQDAPBgNVHRMBAf8EBTADAQH/MAoG
CCqGSM49BAMCAyQAMCECDwCXeSmC89wzikq75vx+TwIOfnab6yyCY6tfEG2VELs=
-----END CERTIFICATE-----
