Certificate:
    Data:
        Version: 3 (0x2)
        Serial Number:
            28:1a:d6:fd:b4:90:53:3f:2d:1d:e6:3f:39:49:db:e9:c8:2b:3a:aa
        Signature Algorithm: ecdsa-with-SHA256
        Issuer: CN = Certificate Transparency SCTs: non-DER encoding
        Validity
            Not Before: Jan  4 09:44:46 2020 GMT
            Not After : Dec 11 09:44:46 2119 GMT
        Subject: CN = Certificate Transparency SCTs: non-DER encoding
        Subject Public Key Info:
            Public Key Algorithm: id-ecPublicKey
                Public-Key: (112 bit)
                pub:
                    04:2f:d7:ed:b4:8b:0e:82:40:06:07:c5:c4:ab:25:
                    d7:27:d3:54:05:a1:9b:f0:51:23:08:fe:af:96
                ASN1 OID: secp112r1
        X509v3 extensions:
            X509v3 Subject Key Identifier:
                05:82:46:02:E9:30:6E:6A:83:85:7C:43:07:A7:69:2F:24:B4:B3:17
            X509v3 Authority Key Identifier:
                keyid:05:82:46:02:E9:30:6E:6A:83:85:7C:43:07:A7:69:2F:24:B4:B3:17

            CT Precertificate SCTs:
                Signed Certificate Timestamp:
                    Version   : v1 (0x0)
                    Log ID    : B2:1E:05:CC:8B:A2:CD:8A:20:4E:87:66:F9:2B:B9:8A:
                                25:20:67:6B:DA:FA:70:E7:B2:49:53:2D:EF:8B:90:5E
                    Timestamp : Jan  6 03:01:39.222 2020 GMT
                    Extensions: none
                    Signature : ecdsa-with-SHA256
                                30:45:02:21:00:F5:BF:C2:51:35:5D:E6:4B:A6:94:C4:
                                13:DC:51:08:7B:FF:BF:9C:46:A6:3E:F6:47:06:0E:DF:
                                2D:2F:FD:99:D9:02:20:73:0F:AB:EC:7E:AA:81:8C:53:
                                1E:10:EB:EB:E6:0B:BA:C5:F8:26:13:0F:04:3B:40:56:
                                A2:83:DA:2D:BB:55:98
                Signed Certificate Timestamp:
                    Version   : v1 (0x0)
                    Log ID    : 6F:53:76:AC:31:F0:31:19:D8:99:00:A4:51:15:FF:77:
                                15:1C:11:D9:02:C1:00:29:06:8D:B2:08:9A:37:D9:13
                    Timestamp : Jan  6 03:01:39.278 2020 GMT
                    Extensions: none
                    Signature : ecdsa-with-SHA256
                                30:45:02:20:5B:5F:03:B2:A0:6E:C1:8D:B6:59:66:60:
                                3C:B1:65:7D:01:77:D6:21:E4:DE:00:3C:75:72:09:FF:
                                D8:7D:F7:3F:02:21:00:B0:87:07:96:18:81:D3:BF:BF:
                                CD:98:E6:63:67:F2:C4:9C:7F:8E:78:AA:5B:43:28:5E:
                                AD:73:74:89:72:AA:C7
            X509v3 Basic Constraints: critical
                CA:TRUE
    Signature Algorithm: ecdsa-with-SHA256
         30:21:02:0f:00:97:79:29:82:f3:dc:33:8a:4a:bb:e6:fc:7e:
         4f:02:0e:7e:76:9b:eb:2c:82:63:ab:5f:10:6d:95:10:bb
-----BEGIN CERTIFICATE-----
MIICjTCCAlegAwIBAgIUKBrW/bSQUz8tHeY/OUnb6cgrOqowCgYIKoZIzj0EAwIw
OjE4MDYGA1UEAwwvQ2VydGlmaWNhdGUgVHJhbnNwYXJlbmN5IFNDVHM6IG5vbi1E
RVIgZW5jb2RpbmcwIBcNMjAwMTA0MDk0NDQ2WhgPMjExOTEyMTEwOTQ0NDZaMDox
ODA2BgNVBAMML0NlcnRpZmljYXRlIFRyYW5zcGFyZW5jeSBTQ1RzOiBub24tREVS
IGVuY29kaW5nMDIwEAYHKoZIzj0CAQYFK4EEAAYDHgAEL9fttIsOgkAGB8XEqyXX
J9NUBaGb8FEjCP6vlqOCAV4wggFaMB0GA1UdDgQWBBQFgkYC6TBuaoOFfEMHp2kv
JLSzFzAfBgNVHSMEGDAWgBQFgkYC6TBuaoOFfEMHp2kvJLSzFzCCAQUGCisGAQQB
1nkCBAIEgfYEggDyAPAAdgCyHgXMi6LNiiBOh2b5K7mKJSBna9r6cOeySVMt74uQ
XgAAAW94zQMWAAAEAwBHMEUCIQD1v8JRNV3mS6aUxBPcUQh7/7+cRqY+9kcGDt8t
L/2Z2QIgcw+r7H6qgYxTHhDr6+YLusX4JhMPBDtAVqKD2i27VZgAdgBvU3asMfAx
GdiZAKRRFf93FRwR2QLBACkGjbIImjfZEwAAAW94zQNOAAAEAwBHMEUCIFtfA7Kg
bsGNtllmYDyxZX0Bd9Yh5N4APHVyCf/Yffc/AiEAsIcHlhiB07+/zZjmY2fyxJx/
jniqW0MoXq1zdIlyqscwDwYDVR0TAQH/BAUwAwEB/zAKBggqhkjOPQQDAgMkADAh
Ag8Al3kpgvPcM4pKu+b8fk8CDn52m+ssgmOrXxBtlRC7
-----END CERTIFICATE-----
