Certificate:
    Data:
        Version: 3 (0x2)
        Serial Number:
            28:1a:d6:fd:b4:90:53:3f:2d:1d:e6:3f:39:49:db:e9:c8:2b:3a:aa
        Signature Algorithm: ecdsa-with-SHA256
        Issuer: CN = Certificate Transparency SCTs: Content Malformed
        Validity
            Not Before: Jan  4 09:44:46 2020 GMT
            Not After : Dec 11 09:44:46 2119 GMT
        Subject: CN = Certificate Transparency SCTs: Content Malformed
        Subject Public Key Info:
            Public Key Algorithm: id-ecPublicKey
                Public-Key: (112 bit)
                pub:
                    04:2f:d7:ed:b4:8b:0e:82:40:06:07:c5:c4:ab:25:
                    d7:27:d3:54:05:a1:9b:f0:51:23:08:fe:af:96
                ASN1 OID: secp112r1
        X509v3 extensions:
            X509v3 Subject Key Identifier:
                05:82:46:02:E9:30:6E:6A:83:85:7C:43:07:A7:69:2F:24:B4:B3:17
            X509v3 Authority Key Identifier:
                keyid:05:82:46:02:E9:30:6E:6A:83:85:7C:43:07:A7:69:2F:24:B4:B3:17

            CT Precertificate SCTs:
                ......v......... N.f.+..% gk..p..IS-...^...ox........G0E.!....Q5].K.....Q.{...F.>.G...-/.... s...~...S.........&...;@V...-.U..v.oSv.1.1.....Q..w.......).....7.....ox..N.....G0E. [_...n...Yf`<.e}.w.!...<ur...}.?.!.............cg.....x.[C(^.st.r.
            X509v3 Basic Constraints: critical
                CA:TRUE
    Signature Algorithm: ecdsa-with-SHA256
         30:21:02:0f:00:97:79:29:82:f3:dc:33:8a:4a:bb:e6:fc:7e:
         4f:02:0e:7e:76:9b:eb:2c:82:63:ab:5f:10:6d:95:10:bb
-----BEGIN CERTIFICATE-----
MIICjTCCAlegAwIBAgIUKBrW/bSQUz8tHeY/OUnb6cgrOqowCgYIKoZIzj0EAwIw
OzE5MDcGA1UEAwwwQ2VydGlmaWNhdGUgVHJhbnNwYXJlbmN5IFNDVHM6IENvbnRl
bnQgTWFsZm9ybWVkMCAXDTIwMDEwNDA5NDQ0NloYDzIxMTkxMjExMDk0NDQ2WjA7
MTkwNwYDVQQDDDBDZXJ0aWZpY2F0ZSBUcmFuc3BhcmVuY3kgU0NUczogQ29udGVu
dCBNYWxmb3JtZWQwMjAQBgcqhkjOPQIBBgUrgQQABgMeAAQv1+20iw6CQAYHxcSr
Jdcn01QFoZvwUSMI/q+Wo4IBXDCCAVgwHQYDVR0OBBYEFAWCRgLpMG5qg4V8Qwen
aS8ktLMXMB8GA1UdIwQYMBaAFAWCRgLpMG5qg4V8QwenaS8ktLMXMIIBAwYKKwYB
BAHWeQIEAgSB9ASB8QDwAHYAsh4FzIuizYogTodm+Su5iiUgZ2va+nDnsklTLe+L
kF4AAAFveM0DFgAABAMARzBFAiEA9b/CUTVd5kumlMQT3FEIe/+/nEamPvZHBg7f
LS/9mdkCIHMPq+x+qoGMUx4Q6+vmC7rF+CYTDwQ7QFaig9otu1WYAHYAb1N2rDHw
MRnYmQCkURX/dxUcEdkCwQApBo2yCJo32RMAAAFveM0DTgAABAMARzBFAiBbXwOy
oG7BjbZZZmA8sWV9AXfWIeTeADx1cgn/2H33PwIhALCHB5YYgdO/v82Y5mNn8sSc
f454qltDKF6tc3SJcqowDwYDVR0TAQH/BAUwAwEB/zAKBggqhkjOPQQDAgMkADAh
Ag8Al3kpgvPcM4pKu+b8fk8CDn52m+ssgmOrXxBtlRC7
-----END CERTIFICATE-----
