Certificate:
    Data:
        Version: 3 (0x2)
        Serial Number: 789 (0x315)
        Signature Algorithm: sha256WithRSAEncryption
        Issuer: CN = Best root CA ever
        Validity
            Not Before: Jan 14 02:00:39 2018 GMT
            Not After : Apr 14 02:00:39 2018 GMT
        Subject: 2.5.4.1 = 2.5.4.1, 2.5.4.2 = 2.5.4.2, CN = 2.5.4.3, SN = 2.5.4.4, serialNumber = 2.5.4.5, C = 2.5.4.6, L = 2.5.4.7, ST = 2.5.4.8, street = 2.5.4.9, O = 2.5.4.10, OU = 2.5.4.11, title = 2.5.4.12, description = 2.5.4.13, searchGuide = 2.5.4.14, businessCategory = 2.5.4.15, postalAddress = 2.5.4.16, postalCode = 2.5.4.17, postOfficeBox = 2.5.4.18, physicalDeliveryOfficeName = 2.5.4.19, telephoneNumber = 2.5.4.20, telexNumber = 2.5.4.21, teletexTerminalIdentifier = 2.5.4.22, facsimileTelephoneNumber = 2.5.4.23, x121Address = 2.5.4.24, internationaliSDNNumber = 2.5.4.25, registeredAddress = 2.5.4.26, destinationIndicator = 2.5.4.27, preferredDeliveryMethod = 2.5.4.28, presentationAddress = 2.5.4.29, supportedApplicationContext = 2.5.4.30, member = 2.5.4.31, owner = 2.5.4.32, roleOccupant = 2.5.4.33, seeAlso = 2.5.4.34, userPassword = 2.5.4.35, userCertificate = 2.5.4.36, cACertificate = 2.5.4.37, authorityRevocationList = 2.5.4.38, certificateRevocationList = 2.5.4.39, crossCertificatePair = 2.5.4.40, name = 2.5.4.41, GN = 2.5.4.42, initials = 2.5.4.43, generationQualifier = 2.5.4.44, x500UniqueIdentifier = 2.5.4.45, dnQualifier = 2.5.4.46, enhancedSearchGuide = 2.5.4.47, protocolInformation = 2.5.4.48, distinguishedName = 2.5.4.49, uniqueMember = 2.5.4.50
        Subject Public Key Info:
            Public Key Algorithm: id-ecPublicKey
                Public-Key: (112 bit)
                pub:
                    04:51:1c:c9:c1:45:b1:b0:fb:e6:70:41:91:2c:c4:
                    11:ae:e6:de:a0:fd:30:12:31:b0:70:2e:85:d6
                ASN1 OID: secp112r1
    Signature Algorithm: sha256WithRSAEncryption
         92:bc:93:55:38:d5:72:86:57:03
-----BEGIN CERTIFICATE-----
MIIEWzCCBDugAwIBAgICAxUwDQYJKoZIhvcNAQELBQAwHDEaMBgGA1UEAxMRQmVz
dCByb290IENBIGV2ZXIwHhcNMTgwMTE0MDIwMDM5WhcNMTgwNDE0MDIwMDM5WjCC
A60xEDAOBgNVBAETBzIuNS40LjExEDAOBgNVBAITBzIuNS40LjIxEDAOBgNVBAMT
BzIuNS40LjMxEDAOBgNVBAQTBzIuNS40LjQxEDAOBgNVBAUTBzIuNS40LjUxEDAO
BgNVBAYTBzIuNS40LjYxEDAOBgNVBAcTBzIuNS40LjcxEDAOBgNVBAgTBzIuNS40
LjgxEDAOBgNVBAkTBzIuNS40LjkxETAPBgNVBAoTCDIuNS40LjEwMREwDwYDVQQL
EwgyLjUuNC4xMTERMA8GA1UEDBMIMi41LjQuMTIxETAPBgNVBA0TCDIuNS40LjEz
MREwDwYDVQQOEwgyLjUuNC4xNDERMA8GA1UEDxMIMi41LjQuMTUxETAPBgNVBBAT
CDIuNS40LjE2MREwDwYDVQQREwgyLjUuNC4xNzERMA8GA1UEEhMIMi41LjQuMTgx
ETAPBgNVBBMTCDIuNS40LjE5MREwDwYDVQQUEwgyLjUuNC4yMDERMA8GA1UEFRMI
Mi41LjQuMjExETAPBgNVBBYTCDIuNS40LjIyMREwDwYDVQQXEwgyLjUuNC4yMzER
MA8GA1UEGBMIMi41LjQuMjQxETAPBgNVBBkTCDIuNS40LjI1MREwDwYDVQQaEwgy
LjUuNC4yNjERMA8GA1UEGxMIMi41LjQuMjcxETAPBgNVBBwTCDIuNS40LjI4MREw
DwYDVQQdEwgyLjUuNC4yOTERMA8GA1UEHhMIMi41LjQuMzAxETAPBgNVBB8TCDIu
NS40LjMxMREwDwYDVQQgEwgyLjUuNC4zMjERMA8GA1UEIRMIMi41LjQuMzMxETAP
BgNVBCITCDIuNS40LjM0MREwDwYDVQQjEwgyLjUuNC4zNTERMA8GA1UEJBMIMi41
LjQuMzYxETAPBgNVBCUTCDIuNS40LjM3MREwDwYDVQQmEwgyLjUuNC4zODERMA8G
A1UEJxMIMi41LjQuMzkxETAPBgNVBCgTCDIuNS40LjQwMREwDwYDVQQpEwgyLjUu
NC40MTERMA8GA1UEKhMIMi41LjQuNDIxETAPBgNVBCsTCDIuNS40LjQzMREwDwYD
VQQsEwgyLjUuNC40NDERMA8GA1UELRMIMi41LjQuNDUxETAPBgNVBC4TCDIuNS40
LjQ2MREwDwYDVQQvEwgyLjUuNC40NzERMA8GA1UEMBMIMi41LjQuNDgxETAPBgNV
BDETCDIuNS40LjQ5MREwDwYDVQQyEwgyLjUuNC41MDAyMBAGByqGSM49AgEGBSuB
BAAGAx4ABFEcycFFsbD75nBBkSzEEa7m3qD9MBIxsHAuhdYwDQYJKoZIhvcNAQEL
BQADCwCSvJNVONVyhlcD
-----END CERTIFICATE-----
