Certificate:
    Data:
        Version: 3 (0x2)
        Serial Number: 12161 (0x2f81)
        Signature Algorithm: dsaWithSHA1
        Issuer: CN = DSA Cert with g = 1
        Validity
            Not Before: Dec 31 16:28:13 2019 GMT
            Not After : Dec  7 16:28:13 2119 GMT
        Subject: CN = DSA Cert with g = 1
        Subject Public Key Info:
            Public Key Algorithm: dsaEncryption
                pub:
                    00:b5:28:e7:ac:ba:ed:d2:04:84:6f:af:47:b5:13:
                    1c:aa:cc:e0:3a:57:a1:cc:b4:53:b2:88:d6:5b:81:
                    a9:1e:90:9d:9d:32:47:76:59:f5:bd:c6:90:55:21:
                    7a:fd:74:ce:7a:5a:f1:d9:5d:9c:12:91:51:9d:57:
                    6c:67:b0:9a:69
                P:
                    00:f9:de:9a:a3:99:26:57:64:2b:28:98:df:27:6a:
                    f8:95:f0:be:80:f7:28:13:25:31:24:f8:d3:98:a4:
                    bc:e2:e4:9a:c3:6b:96:dd:3c:5c:1a:9d:0a:d2:52:
                    48:df:65:9b:79:c1:d6:bd:23:c3:00:af:34:5b:c6:
                    8a:47:f7:e5:65
                Q:
                    00:eb:22:d0:e5:2d:6d:39:fe:d7:83:c8:05:4d:30:
                    7b:28:66:c7:0b:5f
                G:    1 (0x1)
    Signature Algorithm: dsaWithSHA1
         r:
             22:ba:1d:fc:d5:54:41:bd:cb:cf:d6:3e:d3:6f:e6:
             41:92:78:ad:e3
         s:
             3b:6b:0d:84:d1:ef:1d:c5:9a:0c:7a:8e:a6:b4:a0:
             81:89:7f:4e:91
-----BEGIN CERTIFICATE-----
MIIBaTCCASmgAwIBAgICL4EwCQYHKoZIzjgEAzAeMRwwGgYDVQQDDBNEU0EgQ2Vy
dCB3aXRoIGcgPSAxMCAXDTE5MTIzMTE2MjgxM1oYDzIxMTkxMjA3MTYyODEzWjAe
MRwwGgYDVQQDDBNEU0EgQ2VydCB3aXRoIGcgPSAxMIGwMGgGByqGSM44BAEwXQJB
APnemqOZJldkKyiY3ydq+JXwvoD3KBMlMST405ikvOLkmsNrlt08XBqdCtJSSN9l
m3nB1r0jwwCvNFvGikf35WUCFQDrItDlLW05/teDyAVNMHsoZscLXwIBAQNEAAJB
ALUo56y67dIEhG+vR7UTHKrM4DpXocy0U7KI1luBqR6QnZ0yR3ZZ9b3GkFUhev10
znpa8dldnBKRUZ1XbGewmmkwCQYHKoZIzjgEAwMvADAsAhQiuh381VRBvcvP1j7T
b+ZBknit4wIUO2sNhNHvHcWaDHqOprSggYl/TpE=
-----END CERTIFICATE-----
