Certificate:
    Data:
        Version: 3 (0x2)
        Serial Number: 12161 (0x2f81)
        Signature Algorithm: dsaWithSHA1
        Issuer: CN = DSA Cert
        Validity
            Not Before: Dec 31 16:28:13 2019 GMT
            Not After : Dec  7 16:28:13 2119 GMT
        Subject: CN = DSA Cert
        Subject Public Key Info:
            Public Key Algorithm: dsaEncryption
                pub:
                    00:b5:28:e7:ac:ba:ed:d2:04:84:6f:af:47:b5:13:
                    1c:aa:cc:e0:3a:57:a1:cc:b4:53:b2:88:d6:5b:81:
                    a9:1e:90:9d:9d:32:47:76:59:f5:bd:c6:90:55:21:
                    7a:fd:74:ce:7a:5a:f1:d9:5d:9c:12:91:51:9d:57:
                    6c:67:b0:9a:69
                P:
                    00:f9:de:9a:a3:99:26:57:64:2b:28:98:df:27:6a:
                    f8:95:f0:be:80:f7:28:13:25:31:24:f8:d3:98:a4:
                    bc:e2:e4:9a:c3:6b:96:dd:3c:5c:1a:9d:0a:d2:52:
                    48:df:65:9b:79:c1:d6:bd:23:c3:00:af:34:5b:c6:
                    8a:47:f7:e5:65
                Q:
                    00:eb:22:d0:e5:2d:6d:39:fe:d7:83:c8:05:4d:30:
                    7b:28:66:c7:0b:5f
                G:    101 (0x65)
    Signature Algorithm: dsaWithSHA1
         r:
             22:ba:1d:fc:d5:54:41:bd:cb:cf:d6:3e:d3:6f:e6:
             41:92:78:ad:e3
         s:
             3b:6b:0d:84:d1:ef:1d:c5:9a:0c:7a:8e:a6:b4:a0:
             81:89:7f:4e:91
-----BEGIN CERTIFICATE-----
MIIBUzCCAROgAwIBAgICL4EwCQYHKoZIzjgEAzATMREwDwYDVQQDDAhEU0EgQ2Vy
dDAgFw0xOTEyMzExNjI4MTNaGA8yMTE5MTIwNzE2MjgxM1owEzERMA8GA1UEAwwI
RFNBIENlcnQwgbAwaAYHKoZIzjgEATBdAkEA+d6ao5kmV2QrKJjfJ2r4lfC+gPco
EyUxJPjTmKS84uSaw2uW3TxcGp0K0lJI32WbecHWvSPDAK80W8aKR/flZQIVAOsi
0OUtbTn+14PIBU0weyhmxwtfAgFlA0QAAkEAtSjnrLrt0gSEb69HtRMcqszgOleh
zLRTsojWW4GpHpCdnTJHdln1vcaQVSF6/XTOelrx2V2cEpFRnVdsZ7CaaTAJBgcq
hkjOOAQDAy8AMCwCFCK6HfzVVEG9y8/WPtNv5kGSeK3jAhQ7aw2E0e8dxZoMeo6m
tKCBiX9OkQ==
-----END CERTIFICATE-----
