Certificate:
    Data:
        Version: 3 (0x2)
        Serial Number: 12161 (0x2f81)
        Signature Algorithm: dsaWithSHA1
        Issuer: CN = DSA Cert with g = -g
        Validity
            Not Before: Dec 31 16:28:13 2019 GMT
            Not After : Dec  7 16:28:13 2119 GMT
        Subject: CN = DSA Cert with g = -g
        Subject Public Key Info:
            Public Key Algorithm: dsaEncryption
                pub:
                    00:b5:28:e7:ac:ba:ed:d2:04:84:6f:af:47:b5:13:
                    1c:aa:cc:e0:3a:57:a1:cc:b4:53:b2:88:d6:5b:81:
                    a9:1e:90:9d:9d:32:47:76:59:f5:bd:c6:90:55:21:
                    7a:fd:74:ce:7a:5a:f1:d9:5d:9c:12:91:51:9d:57:
                    6c:67:b0:9a:69
                P:
                    00:f9:de:9a:a3:99:26:57:64:2b:28:98:df:27:6a:
                    f8:95:f0:be:80:f7:28:13:25:31:24:f8:d3:98:a4:
                    bc:e2:e4:9a:c3:6b:96:dd:3c:5c:1a:9d:0a:d2:52:
                    48:df:65:9b:79:c1:d6:bd:23:c3:00:af:34:5b:c6:
                    8a:47:f7:e5:65
                Q:
                    00:eb:22:d0:e5:2d:6d:39:fe:d7:83:c8:05:4d:30:
                    7b:28:66:c7:0b:5f
                G:
                    00:e4:de:c3:01:97:f6:29:08:9f:7e:59:c9:c6:a2:
                    a6:e1:27:b0:e0:04:53:6a:3a:4f:8a:a6:b4:d0:64:
                    c9:33:fb:34:d4:90:5f:3d:6b:05:60:9f:13:ac:e1:
                    43:35:4a:3b:93:3c:6c:f9:bf:cf:fa:9a:3c:80:3c:
                    cd:76:3a:9c:e6
    Signature Algorithm: dsaWithSHA1
         r:
             22:ba:1d:fc:d5:54:41:bd:cb:cf:d6:3e:d3:6f:e6:
             41:92:78:ad:e3
         s:
             3b:6b:0d:84:d1:ef:1d:c5:9a:0c:7a:8e:a6:b4:a0:
             81:89:7f:4e:91
-----BEGIN CERTIFICATE-----
MIIBrDCCAWygAwIBAgICL4EwCQYHKoZIzjgEAzAfMR0wGwYDVQQDDBREU0EgQ2Vy
dCB3aXRoIGcgPSAtZzAgFw0xOTEyMzExNjI4MTNaGA8yMTE5MTIwNzE2MjgxM1ow
HzEdMBsGA1UEAwwURFNBIENlcnQgd2l0aCBnID0gLWcwgfEwgagGByqGSM44BAEw
gZwCQQD53pqjmSZXZCsomN8naviV8L6A9ygTJTEk+NOYpLzi5JrDa5bdPFwanQrS
UkjfZZt5wda9I8MArzRbxopH9+VlAhUA6yLQ5S1tOf7Xg8gFTTB7KGbHC18CQOTe
wwGX9ikIn35ZycaipuEnsOAEU2o6T4qmtNBkyTP7NNSQXz1rBWCfE6zhQzVKO5M8
bPm/z/qaPIA8zXY6nOYDRAACQQC1KOesuu3SBIRvr0e1ExyqzOA6V6HMtFOyiNZb
gakekJ2dMkd2WfW9xpBVIXr9dM56WvHZXZwSkVGdV2xnsJppMAkGByqGSM44BAMD
LwAwLAIUIrod/NVUQb3Lz9Y+02/mQZJ4reMCFDtrDYTR7x3Fmgx6jqa0oIGJf06R
-----END CERTIFICATE-----
