Certificate:
    Data:
        Version: 3 (0x2)
        Serial Number: 12161 (0x2f81)
        Signature Algorithm: dsaWithSHA1
        Issuer: CN = DSA certificate: Q has bit bias
        Validity
            Not Before: Dec 31 16:28:13 2019 GMT
            Not After : Dec  7 16:28:13 2119 GMT
        Subject: CN = DSA certificate: Q has bit bias
        Subject Public Key Info:
            Public Key Algorithm: dsaEncryption
                pub:
                    00:b5:28:e7:ac:ba:ed:d2:04:84:6f:af:47:b5:13:
                    1c:aa:cc:e0:3a:57:a1:cc:b4:53:b2:88:d6:5b:81:
                    a9:1e:90:9d:9d:32:47:76:59:f5:bd:c6:90:55:21:
                    7a:fd:74:ce:7a:5a:f1:d9:5d:9c:12:91:51:9d:57:
                    6c:67:b0:9a:69
                P:
                    00:f9:de:9a:a3:99:26:57:64:2b:28:98:df:27:6a:
                    f8:95:f0:be:80:f7:28:13:25:31:24:f8:d3:98:a4:
                    bc:e2:e4:9a:c3:6b:96:dd:3c:5c:1a:9d:0a:d2:52:
                    48:df:65:9b:79:c1:d6:bd:23:c3:00:af:34:5b:c6:
                    8a:47:f7:e5:65
                Q:
                    00:80:00:00:00:00:00:00:00:00:00:00:00:00:00:
                    00:00:00:00:01:2b
                G:
                    1b:21:3c:fe:68:09:d6:f7:60:81:a6:36:39:5d:59:
                    1e:d8:4f:1f:fb:ac:95:c5:b0:75:59:4b:2f:9b:36:
                    cc:04:cb:2b:6f:a0:c2:94:fa:9f:60:ec:53:1e:bc:
                    ca:b5:c4:6c:c3:93:06:40:30:05:65:c3:7f:c3:32:
                    89:c5:63:1a
    Signature Algorithm: dsaWithSHA1
         r:
             22:ba:1d:fc:d5:54:41:bd:cb:cf:d6:3e:d3:6f:e6:
             41:92:78:ad:e3
         s:
             3b:6b:0d:84:d1:ef:1d:c5:9a:0c:7a:8e:a6:b4:a0:
             81:89:7f:4e:91
-----BEGIN CERTIFICATE-----
MIIBwjCCAYKgAwIBAgICL4EwCQYHKoZIzjgEAzAqMSgwJgYDVQQDDB9EU0EgY2Vy
dGlmaWNhdGU6IFEgaGFzIGJpdCBiaWFzMCAXDTE5MTIzMTE2MjgxM1oYDzIxMTkx
MjA3MTYyODEzWjAqMSgwJgYDVQQDDB9EU0EgY2VydGlmaWNhdGU6IFEgaGFzIGJp
dCBiaWFzMIHxMIGoBgcqhkjOOAQBMIGcAkEA+d6ao5kmV2QrKJjfJ2r4lfC+gPco
EyUxJPjTmKS84uSaw2uW3TxcGp0K0lJI32WbecHWvSPDAK80W8aKR/flZQIVAIAA
AAAAAAAAAAAAAAAAAAAAAAErAkAbITz+aAnW92CBpjY5XVke2E8f+6yVxbB1WUsv
mzbMBMsrb6DClPqfYOxTHrzKtcRsw5MGQDAFZcN/wzKJxWMaA0QAAkEAtSjnrLrt
0gSEb69HtRMcqszgOlehzLRTsojWW4GpHpCdnTJHdln1vcaQVSF6/XTOelrx2V2c
EpFRnVdsZ7CaaTAJBgcqhkjOOAQDAy8AMCwCFCK6HfzVVEG9y8/WPtNv5kGSeK3j
AhQ7aw2E0e8dxZoMeo6mtKCBiX9OkQ==
-----END CERTIFICATE-----
