Certificate:
    Data:
        Version: 3 (0x2)
        Serial Number:
            38:00:b3:09:0a:b5:9c:28:ef:91:d9:cb:4c:3f:31:e8:54:fa:05:97
        Signature Algorithm: ecdsa-with-SHA256
        Issuer: CN = ECC public key bit bias Y
        Validity
            Not Before: Dec 23 21:16:06 2019 GMT
            Not After : Nov 29 21:16:06 2119 GMT
        Subject: CN = ECC public key bit bias Y
        Subject Public Key Info:
            Public Key Algorithm: id-ecPublicKey
                Public-Key: (112 bit)
                pub:
                    04:24:eb:0e:90:c6:81:78:36:47:20:4d:6f:66:f4:
                    04:11:22:01:04:41:05:2f:00:18:81:8a:80:20
                ASN1 OID: secp112r1
        X509v3 extensions:
            X509v3 Subject Key Identifier:
                07:A1:C4:FA:BF:13:EE:B1:E1:72:8E:F0:A5:91:9D:11:95:B0:4F:0A
            X509v3 Authority Key Identifier:
                keyid:07:A1:C4:FA:BF:13:EE:B1:E1:72:8E:F0:A5:91:9D:11:95:B0:4F:0A

            X509v3 Basic Constraints: critical
                CA:TRUE
    Signature Algorithm: ecdsa-with-SHA256
         30:20:02:0e:15:2d:d1:2a:b9:5b:bb:91:38:12:5c:4c:aa:9a:
         02:0e:47:af:dd:ba:6a:e1:78:d6:8b:73:8e:0d:4f:ba
-----BEGIN CERTIFICATE-----
MIIBUzCCAR6gAwIBAgIUOACzCQq1nCjvkdnLTD8x6FT6BZcwCgYIKoZIzj0EAwIw
JDEiMCAGA1UEAwwZRUNDIHB1YmxpYyBrZXkgYml0IGJpYXMgWTAgFw0xOTEyMjMy
MTE2MDZaGA8yMTE5MTEyOTIxMTYwNlowJDEiMCAGA1UEAwwZRUNDIHB1YmxpYyBr
ZXkgYml0IGJpYXMgWTAyMBAGByqGSM49AgEGBSuBBAAGAx4ABCTrDpDGgXg2RyBN
b2b0BBEiAQRBBS8AGIGKgCCjUzBRMB0GA1UdDgQWBBQHocT6vxPuseFyjvClkZ0R
lbBPCjAfBgNVHSMEGDAWgBQHocT6vxPuseFyjvClkZ0RlbBPCjAPBgNVHRMBAf8E
BTADAQH/MAoGCCqGSM49BAMCAyMAMCACDhUt0Sq5W7uROBJcTKqaAg5Hr926auF4
1otzjg1Pug==
-----END CERTIFICATE-----
