Certificate:
    Data:
        Version: 3 (0x2)
        Serial Number:
            38:00:b3:09:0a:b5:9c:28:ef:91:d9:cb:4c:3f:31:e8:54:fa:05:97
        Signature Algorithm: ecdsa-with-SHA256
        Issuer: CN = ECC public key bit bias X (high Hamming weight)
        Validity
            Not Before: Dec 23 21:16:06 2019 GMT
            Not After : Nov 29 21:16:06 2119 GMT
        Subject: CN = ECC public key bit bias X (high Hamming weight)
        Subject Public Key Info:
            Public Key Algorithm: id-ecPublicKey
                Public-Key: (112 bit)
                pub:
                    04:01:7c:2a:bf:62:ff:ff:ff:ff:ff:ff:ff:ff:fd:
                    15:e5:dd:e7:af:1c:1e:cf:c8:ad:06:28:a1:5e
                ASN1 OID: secp112r1
        X509v3 extensions:
            X509v3 Subject Key Identifier:
                07:A1:C4:FA:BF:13:EE:B1:E1:72:8E:F0:A5:91:9D:11:95:B0:4F:0A
            X509v3 Authority Key Identifier:
                keyid:07:A1:C4:FA:BF:13:EE:B1:E1:72:8E:F0:A5:91:9D:11:95:B0:4F:0A

            X509v3 Basic Constraints: critical
                CA:TRUE
    Signature Algorithm: ecdsa-with-SHA256
         30:20:02:0e:15:2d:d1:2a:b9:5b:bb:91:38:12:5c:4c:aa:9a:
         02:0e:47:af:dd:ba:6a:e1:78:d6:8b:73:8e:0d:4f:ba
-----BEGIN CERTIFICATE-----
MIIBfzCCAUqgAwIBAgIUOACzCQq1nCjvkdnLTD8x6FT6BZcwCgYIKoZIzj0EAwIw
OjE4MDYGA1UEAwwvRUNDIHB1YmxpYyBrZXkgYml0IGJpYXMgWCAoaGlnaCBIYW1t
aW5nIHdlaWdodCkwIBcNMTkxMjIzMjExNjA2WhgPMjExOTExMjkyMTE2MDZaMDox
ODA2BgNVBAMML0VDQyBwdWJsaWMga2V5IGJpdCBiaWFzIFggKGhpZ2ggSGFtbWlu
ZyB3ZWlnaHQpMDIwEAYHKoZIzj0CAQYFK4EEAAYDHgAEAXwqv2L///////////0V
5d3nrxwez8itBiihXqNTMFEwHQYDVR0OBBYEFAehxPq/E+6x4XKO8KWRnRGVsE8K
MB8GA1UdIwQYMBaAFAehxPq/E+6x4XKO8KWRnRGVsE8KMA8GA1UdEwEB/wQFMAMB
Af8wCgYIKoZIzj0EAwIDIwAwIAIOFS3RKrlbu5E4ElxMqpoCDkev3bpq4XjWi3OO
DU+6
-----END CERTIFICATE-----
