Certificate:
    Data:
        Version: 3 (0x2)
        Serial Number:
            67:72:e2:63:e6:59:56:13:09:8c:6e:b2:c0:72:fd:46:8f:63:d8:04
        Signature Algorithm: ecdsa-with-SHA256
        Issuer: CN = ECC explicit parameter encoding binary field ppBasis with non-prime m
        Validity
            Not Before: Dec 29 14:38:11 2019 GMT
            Not After : Dec  5 14:38:11 2119 GMT
        Subject: CN = ECC explicit parameter encoding binary field ppBasis with non-prime m
        Subject Public Key Info:
            Public Key Algorithm: id-ecPublicKey
            Unable to load Public Key
140043690894528:error:1012606B:elliptic curve routines:EC_POINT_set_affine_coordinates:point is not on curve:crypto/ec/ec_lib.c:812:
140043690894528:error:10107010:elliptic curve routines:EC_GROUP_new_from_ecparameters:EC lib:crypto/ec/ec_asn1.c:762:
140043690894528:error:10108010:elliptic curve routines:EC_GROUP_new_from_ecpkparameters:EC lib:crypto/ec/ec_asn1.c:892:
140043690894528:error:1009107F:elliptic curve routines:d2i_ECPKParameters:pkparameters2group failure:crypto/ec/ec_asn1.c:921:
140043690894528:error:10090010:elliptic curve routines:d2i_ECParameters:EC lib:crypto/ec/ec_asn1.c:1133:
140043690894528:error:100DC08E:elliptic curve routines:eckey_type2param:decode error:crypto/ec/ec_ameth.c:103:
140043690894528:error:100D7010:elliptic curve routines:eckey_pub_decode:EC lib:crypto/ec/ec_ameth.c:151:
140043690894528:error:0B09407D:x509 certificate routines:x509_pubkey_decode:public key decode error:crypto/x509/x_pubkey.c:125:
        X509v3 extensions:
            X509v3 Subject Key Identifier:
                67:73:EF:1C:5E:13:6B:ED:DD:55:0B:02:0C:9C:99:96:89:89:63:1E
            X509v3 Authority Key Identifier:
                keyid:67:73:EF:1C:5E:13:6B:ED:DD:55:0B:02:0C:9C:99:96:89:89:63:1E

            X509v3 Basic Constraints: critical
                CA:TRUE
    Signature Algorithm: ecdsa-with-SHA256
         30:26:02:11:02:b0:22:c4:0f:4a:20:21:e5:56:5e:a0:40:11:
         55:e4:15:02:11:01:df:08:45:71:0a:74:14:78:05:aa:99:1e:
         fb:54:f1:9f
-----BEGIN CERTIFICATE-----
MIICWTCCAh6gAwIBAgIUZ3LiY+ZZVhMJjG6ywHL9Ro9j2AQwCgYIKoZIzj0EAwIw
UDFOMEwGA1UEAwxFRUNDIGV4cGxpY2l0IHBhcmFtZXRlciBlbmNvZGluZyBiaW5h
cnkgZmllbGQgcHBCYXNpcyB3aXRoIG5vbi1wcmltZSBtMCAXDTE5MTIyOTE0Mzgx
MVoYDzIxMTkxMjA1MTQzODExWjBQMU4wTAYDVQQDDEVFQ0MgZXhwbGljaXQgcGFy
YW1ldGVyIGVuY29kaW5nIGJpbmFyeSBmaWVsZCBwcEJhc2lzIHdpdGggbm9uLXBy
aW1lIG0wgdkwgbAGByqGSM49AgEwgaQCAQEwJQYHKoZIzj0BAjAaAgIAhQYJKoZI
zj0BAgMDMAkCAQICAQgCAQowPQQRB6EbCadrViFEQY/z/4wlcLgEEQIXwFYQiEtj
ucbHKRZ4+dNBAxUATWluZ2h1YVF1mFvTrbraIbQ6l+IEIwQAgbr5H9+YM8QPnBgT
Q2ODmQeMbn6jjAAfc8gTSxtO+eFQAhEEAAAAAAAAAAIxI5U6lGS1TQIBAgMkAAQH
zpddyy39p/Nz5bHDjO+YJwewPGVe7zkhoylo6/xCO3Z/o1MwUTAdBgNVHQ4EFgQU
Z3PvHF4Ta+3dVQsCDJyZlomJYx4wHwYDVR0jBBgwFoAUZ3PvHF4Ta+3dVQsCDJyZ
lomJYx4wDwYDVR0TAQH/BAUwAwEB/zAKBggqhkjOPQQDAgMpADAmAhECsCLED0og
IeVWXqBAEVXkFQIRAd8IRXEKdBR4BaqZHvtU8Z8=
-----END CERTIFICATE-----
