Certificate:
    Data:
        Version: 3 (0x2)
        Serial Number:
            67:72:e2:63:e6:59:56:13:09:8c:6e:b2:c0:72:fd:46:8f:63:d8:04
        Signature Algorithm: ecdsa-with-SHA256
        Issuer: CN = ECC explicit parameter encoding binary field ppBasis with invalid polynomial term
        Validity
            Not Before: Dec 29 14:38:11 2019 GMT
            Not After : Dec  5 14:38:11 2119 GMT
        Subject: CN = ECC explicit parameter encoding binary field ppBasis with invalid polynomial term
        Subject Public Key Info:
            Public Key Algorithm: id-ecPublicKey
            Unable to load Public Key
140124460164288:error:10107084:elliptic curve routines:EC_GROUP_new_from_ecparameters:invalid pentanomial basis:crypto/ec/ec_asn1.c:671:
140124460164288:error:10108010:elliptic curve routines:EC_GROUP_new_from_ecpkparameters:EC lib:crypto/ec/ec_asn1.c:892:
140124460164288:error:1009107F:elliptic curve routines:d2i_ECPKParameters:pkparameters2group failure:crypto/ec/ec_asn1.c:921:
140124460164288:error:10090010:elliptic curve routines:d2i_ECParameters:EC lib:crypto/ec/ec_asn1.c:1133:
140124460164288:error:100DC08E:elliptic curve routines:eckey_type2param:decode error:crypto/ec/ec_ameth.c:103:
140124460164288:error:100D7010:elliptic curve routines:eckey_pub_decode:EC lib:crypto/ec/ec_ameth.c:151:
140124460164288:error:0B09407D:x509 certificate routines:x509_pubkey_decode:public key decode error:crypto/x509/x_pubkey.c:125:
        X509v3 extensions:
            X509v3 Subject Key Identifier: 
                67:73:EF:1C:5E:13:6B:ED:DD:55:0B:02:0C:9C:99:96:89:89:63:1E
            X509v3 Authority Key Identifier: 
                keyid:67:73:EF:1C:5E:13:6B:ED:DD:55:0B:02:0C:9C:99:96:89:89:63:1E

            X509v3 Basic Constraints: critical
                CA:TRUE
    Signature Algorithm: ecdsa-with-SHA256
         30:26:02:11:02:b0:22:c4:0f:4a:20:21:e5:56:5e:a0:40:11:
         55:e4:15:02:11:01:df:08:45:71:0a:74:14:78:05:aa:99:1e:
         fb:54:f1:9f
-----BEGIN CERTIFICATE-----
MIICcjCCAjegAwIBAgIUZ3LiY+ZZVhMJjG6ywHL9Ro9j2AQwCgYIKoZIzj0EAwIw
XDFaMFgGA1UEAwxRRUNDIGV4cGxpY2l0IHBhcmFtZXRlciBlbmNvZGluZyBiaW5h
cnkgZmllbGQgcHBCYXNpcyB3aXRoIGludmFsaWQgcG9seW5vbWlhbCB0ZXJtMCAX
DTE5MTIyOTE0MzgxMVoYDzIxMTkxMjA1MTQzODExWjBcMVowWAYDVQQDDFFFQ0Mg
ZXhwbGljaXQgcGFyYW1ldGVyIGVuY29kaW5nIGJpbmFyeSBmaWVsZCBwcEJhc2lz
IHdpdGggaW52YWxpZCBwb2x5bm9taWFsIHRlcm0wgdowgbEGByqGSM49AgEwgaUC
AQEwJgYHKoZIzj0BAjAbAgIAgwYJKoZIzj0BAgMDMAoCAQICAQMCAgCMMD0EEQeh
Gwmna1YhREGP8/+MJXC4BBECF8BWEIhLY7nGxykWePnTQQMVAE1pbmdodWFRdZhb
06262iG0OpfiBCMEAIG6+R/fmDPED5wYE0Njg5kHjG5+o4wAH3PIE0sbTvnhUAIR
BAAAAAAAAAACMSOVOpRktU0CAQIDJAAEB86XXcst/afzc+Wxw4zvmCcHsDxlXu85
IaMpaOv8Qjt2f6NTMFEwHQYDVR0OBBYEFGdz7xxeE2vt3VULAgycmZaJiWMeMB8G
A1UdIwQYMBaAFGdz7xxeE2vt3VULAgycmZaJiWMeMA8GA1UdEwEB/wQFMAMBAf8w
CgYIKoZIzj0EAwIDKQAwJgIRArAixA9KICHlVl6gQBFV5BUCEQHfCEVxCnQUeAWq
mR77VPGf
-----END CERTIFICATE-----
