Certificate:
    Data:
        Version: 3 (0x2)
        Serial Number:
            38:00:b3:09:0a:b5:9c:28:ef:91:d9:cb:4c:3f:31:e8:54:fa:05:97
        Signature Algorithm: ecdsa-with-SHA256
        Issuer: CN = ECC public key bit bias X (low Hamming weight)
        Validity
            Not Before: Dec 23 21:16:06 2019 GMT
            Not After : Nov 29 21:16:06 2119 GMT
        Subject: CN = ECC public key bit bias X (low Hamming weight)
        Subject Public Key Info:
            Public Key Algorithm: id-ecPublicKey
                Public-Key: (112 bit)
                pub:
                    04:00:00:00:00:00:00:00:00:00:00:12:34:56:78:
                    c9:8b:bf:52:34:b3:c3:11:ca:cc:0a:9c:4d:3a
                ASN1 OID: secp112r1
        X509v3 extensions:
            X509v3 Subject Key Identifier: 
                07:A1:C4:FA:BF:13:EE:B1:E1:72:8E:F0:A5:91:9D:11:95:B0:4F:0A
            X509v3 Authority Key Identifier: 
                keyid:07:A1:C4:FA:BF:13:EE:B1:E1:72:8E:F0:A5:91:9D:11:95:B0:4F:0A

            X509v3 Basic Constraints: critical
                CA:TRUE
    Signature Algorithm: ecdsa-with-SHA256
         30:20:02:0e:15:2d:d1:2a:b9:5b:bb:91:38:12:5c:4c:aa:9a:
         02:0e:47:af:dd:ba:6a:e1:78:d6:8b:73:8e:0d:4f:ba
-----BEGIN CERTIFICATE-----
MIIBfTCCAUigAwIBAgIUOACzCQq1nCjvkdnLTD8x6FT6BZcwCgYIKoZIzj0EAwIw
OTE3MDUGA1UEAwwuRUNDIHB1YmxpYyBrZXkgYml0IGJpYXMgWCAobG93IEhhbW1p
bmcgd2VpZ2h0KTAgFw0xOTEyMjMyMTE2MDZaGA8yMTE5MTEyOTIxMTYwNlowOTE3
MDUGA1UEAwwuRUNDIHB1YmxpYyBrZXkgYml0IGJpYXMgWCAobG93IEhhbW1pbmcg
d2VpZ2h0KTAyMBAGByqGSM49AgEGBSuBBAAGAx4ABAAAAAAAAAAAAAASNFZ4yYu/
UjSzwxHKzAqcTTqjUzBRMB0GA1UdDgQWBBQHocT6vxPuseFyjvClkZ0RlbBPCjAf
BgNVHSMEGDAWgBQHocT6vxPuseFyjvClkZ0RlbBPCjAPBgNVHRMBAf8EBTADAQH/
MAoGCCqGSM49BAMCAyMAMCACDhUt0Sq5W7uROBJcTKqaAg5Hr926auF41otzjg1P
ug==
-----END CERTIFICATE-----
