Certificate:
    Data:
        Version: 3 (0x2)
        Serial Number:
            01:00:00:00:00:00:00:00:00:00:00:00:00:00:00:00:00:00:00:00:00
        Signature Algorithm: ecdsa-with-SHA256
        Issuer: CN = Root CA
        Validity
            Not Before: Jan  1 00:00:00 2018 GMT
            Not After : Jan  1 00:00:00 2035 GMT
        Subject: CN = Subject CA
        Subject Public Key Info:
            Public Key Algorithm: id-ecPublicKey
                Public-Key: (384 bit)
                pub:
                    04:4e:59:5b:bf:b2:19:44:3c:0a:6d:78:a8:dd:f2:
                    05:87:55:ca:29:f4:24:02:f1:19:ac:e9:50:58:e3:
                    b7:d2:e2:c3:18:3a:55:70:0c:ce:7d:2c:02:5e:a8:
                    b9:84:9e:3f:df:58:61:58:a9:3c:bc:d6:3a:a3:a2:
                    52:4f:2b:8d:20:99:b6:8d:d5:40:55:33:58:8a:e4:
                    b0:44:e7:fc:81:6c:02:20:db:85:d7:df:20:64:a4:
                    53:64:51:9d:0f:6b:34
                ASN1 OID: secp384r1
                NIST CURVE: P-384
        X509v3 extensions:
            X509v3 Authority Key Identifier: 
                keyid:23:46:1F:CC:CB:56:9B:4F:6C:B4:1C:F4:6A:E4:AF:E3:2B:BF:94:69

            X509v3 Basic Constraints: critical
                CA:FALSE
            X509v3 Extended Key Usage: 
                TLS Web Client Authentication
            X509v3 Key Usage: critical
                Digital Signature, Key Encipherment, Key Agreement
            Netscape Cert Type: 
                SSL Client
            X509v3 Subject Key Identifier: 
                75:21:9B:DE:55:02:74:5E:EB:80:24:22:DB:81:CA:00:9E:1E:96:28
    Signature Algorithm: ecdsa-with-SHA256
         30:66:02:31:00:e2:d1:2d:6a:12:e3:c5:f7:81:92:0c:73:2d:
         3d:72:7e:d4:a2:f2:7e:b5:e3:5c:e6:93:c5:72:48:9d:81:be:
         e0:df:e8:d4:c7:3f:73:f1:e6:17:31:00:73:e9:2e:89:d1:02:
         31:00:e1:3b:76:ab:b2:94:14:3f:b8:ce:fe:1b:4a:d3:c5:a7:
         49:78:48:d9:20:fa:d1:f3:e9:45:27:f2:c9:a0:cc:fe:75:3a:
         11:da:9f:a4:2e:f9:a1:cf:55:09:c2:69:3d:78
-----BEGIN CERTIFICATE-----
MIIB8jCCAXegAwIBAgIVAQAAAAAAAAAAAAAAAAAAAAAAAAAAMAoGCCqGSM49BAMC
MBIxEDAOBgNVBAMMB1Jvb3QgQ0EwHhcNMTgwMTAxMDAwMDAwWhcNMzUwMTAxMDAw
MDAwWjAVMRMwEQYDVQQDDApTdWJqZWN0IENBMHYwEAYHKoZIzj0CAQYFK4EEACID
YgAETllbv7IZRDwKbXio3fIFh1XKKfQkAvEZrOlQWOO30uLDGDpVcAzOfSwCXqi5
hJ4/31hhWKk8vNY6o6JSTyuNIJm2jdVAVTNYiuSwROf8gWwCINuF198gZKRTZFGd
D2s0o4GJMIGGMB8GA1UdIwQYMBaAFCNGH8zLVptPbLQc9Grkr+Mrv5RpMAwGA1Ud
EwEB/wQCMAAwEwYDVR0lBAwwCgYIKwYBBQUHAwIwDgYDVR0PAQH/BAQDAgOoMBEG
CWCGSAGG+EIBAQQEAwIHgDAdBgNVHQ4EFgQUdSGb3lUCdF7rgCQi24HKAJ4eligw
CgYIKoZIzj0EAwIDaQAwZgIxAOLRLWoS48X3gZIMcy09cn7UovJ+teNc5pPFckid
gb7g3+jUxz9z8eYXMQBz6S6J0QIxAOE7dquylBQ/uM7+G0rTxadJeEjZIPrR8+lF
J/LJoMz+dToR2p+kLvmhz1UJwmk9eA==
-----END CERTIFICATE-----
