Certificate:
    Data:
        Version: 3 (0x2)
        Serial Number:
            46:94:23:d1:3f:e3:92:4b:fa:4b:f5:4e:0f:ec:1a:aa:32:a9:38:08
        Signature Algorithm: ED25519
        Issuer: CN = EdDSA Ed25519 Cert
        Validity
            Not Before: Aug 19 09:06:09 2018 GMT
            Not After : Aug 24 09:06:09 2018 GMT
        Subject: CN = EdDSA Ed25519 Cert
        Subject Public Key Info:
            Public Key Algorithm: ED25519
                ED25519 Public-Key:
                pub:
                    dc:bf:c4:d2:bd:9b:5b:9b:3f:7c:d6:73:cf:55:9f:
                    e3:79:39:46:a6:a9:04:35:5c:07:a5:52:99:1b:db:
                    a7:c5
        X509v3 extensions:
            X509v3 Subject Key Identifier:
                64:03:FE:E1:02:06:0D:6C:69:07:47:3A:91:15:58:3A:D8:3C:9B:90
            X509v3 Authority Key Identifier:
                keyid:64:03:FE:E1:02:06:0D:6C:69:07:47:3A:91:15:58:3A:D8:3C:9B:90

            X509v3 Basic Constraints: critical
                CA:TRUE
    Signature Algorithm: ED25519
         be:07:8e:b4:ea:bb:ea:3f:bf:5f:41:f7:c1:16:b4:d2:45:0c:
         c4:b0:98:50:df:14:77:10:ca:1d:79:a7:f8:a2:84:3d:73:c2:
         c2:d7:80:23:d6:64:85:c4:c1:08:38:d3:76:10:f6:1a:40:96:
         2a:b6:55:c5:f7:a3:df:0a:c1:0d
-----BEGIN CERTIFICATE-----
MIIBWjCCAQygAwIBAgIURpQj0T/jkkv6S/VOD+waqjKpOAgwEAYDK2VwBglghkgB
ZQMEAgEwHTEbMBkGA1UEAwwSRWREU0EgRWQyNTUxOSBDZXJ0MB4XDTE4MDgxOTA5
MDYwOVoXDTE4MDgyNDA5MDYwOVowHTEbMBkGA1UEAwwSRWREU0EgRWQyNTUxOSBD
ZXJ0MCowBQYDK2VwAyEA3L/E0r2bW5s/fNZzz1Wf43k5RqapBDVcB6VSmRvbp8Wj
UzBRMB0GA1UdDgQWBBRkA/7hAgYNbGkHRzqRFVg62DybkDAfBgNVHSMEGDAWgBRk
A/7hAgYNbGkHRzqRFVg62DybkDAPBgNVHRMBAf8EBTADAQH/MAUGAytlcANBAL4H
jrTqu+o/v19B98EWtNJFDMSwmFDfFHcQyh15p/iihD1zwsLXgCPWZIXEwQg403YQ
9hpAliq2VcX3o98KwQ0=
-----END CERTIFICATE-----
