Certificate:
    Data:
        Version: 3 (0x2)
        Serial Number: 1 (0x1)
        Signature Algorithm: ecdsa-with-SHA256
        Issuer: CN = Netscape Certificate Type: Object Signing CA
        Validity
            Not Before: Jan  1 00:00:00 2018 GMT
            Not After : Jan  1 00:00:00 2035 GMT
        Subject: CN = Netscape Certificate Type: Object Signing CA
        Subject Public Key Info:
            Public Key Algorithm: id-ecPublicKey
                Public-Key: (384 bit)
                pub:
                    04:aa:87:ca:22:be:8b:05:37:8e:b1:c7:1e:f3:20:
                    ad:74:6e:1d:3b:62:8b:a7:9b:98:59:f7:41:e0:82:
                    54:2a:38:55:02:f2:5d:bf:55:29:6c:3a:54:5e:38:
                    72:76:0a:b7:36:17:de:4a:96:26:2c:6f:5d:9e:98:
                    bf:92:92:dc:29:f8:f4:1d:bd:28:9a:14:7c:e9:da:
                    31:13:b5:f0:b8:c0:0a:60:b1:ce:1d:7e:81:9d:7a:
                    43:1d:7c:90:ea:0e:5f
                ASN1 OID: secp384r1
                NIST CURVE: P-384
        X509v3 extensions:
            X509v3 Authority Key Identifier:
                keyid:23:46:1F:CC:CB:56:9B:4F:6C:B4:1C:F4:6A:E4:AF:E3:2B:BF:94:69

            X509v3 Basic Constraints: critical
                CA:FALSE
            X509v3 Extended Key Usage:
                TLS Web Client Authentication
            X509v3 Key Usage: critical
                Digital Signature, Key Encipherment, Key Agreement
            Netscape Cert Type:
                Object Signing CA
            X509v3 Subject Key Identifier:
                75:21:9B:DE:55:02:74:5E:EB:80:24:22:DB:81:CA:00:9E:1E:96:28
    Signature Algorithm: ecdsa-with-SHA256
         30:66:02:31:00:e2:d1:2d:6a:12:e3:c5:f7:81:92:0c:73:2d:
         3d:72:7e:d4:a2:f2:7e:b5:e3:5c:e6:93:c5:72:48:9d:81:be:
         e0:df:e8:d4:c7:3f:73:f1:e6:17:31:00:73:e9:2e:89:d1:02:
         31:00:e1:3b:76:ab:b2:94:14:3f:b8:ce:fe:1b:4a:d3:c5:a7:
         49:78:48:d9:20:fa:d1:f3:e9:45:27:f2:c9:a0:cc:fe:75:3a:
         11:da:9f:a4:2e:f9:a1:cf:55:09:c2:69:3d:78
-----BEGIN CERTIFICATE-----
MIICJTCCAaqgAwIBAgIBATAKBggqhkjOPQQDAjA3MTUwMwYDVQQDDCxOZXRzY2Fw
ZSBDZXJ0aWZpY2F0ZSBUeXBlOiBPYmplY3QgU2lnbmluZyBDQTAeFw0xODAxMDEw
MDAwMDBaFw0zNTAxMDEwMDAwMDBaMDcxNTAzBgNVBAMMLE5ldHNjYXBlIENlcnRp
ZmljYXRlIFR5cGU6IE9iamVjdCBTaWduaW5nIENBMHYwEAYHKoZIzj0CAQYFK4EE
ACIDYgAEqofKIr6LBTeOscce8yCtdG4dO2KLp5uYWfdB4IJUKjhVAvJdv1UpbDpU
Xjhydgq3NhfeSpYmLG9dnpi/kpLcKfj0Hb0omhR86doxE7XwuMAKYLHOHX6BnXpD
HXyQ6g5fo4GJMIGGMB8GA1UdIwQYMBaAFCNGH8zLVptPbLQc9Grkr+Mrv5RpMAwG
A1UdEwEB/wQCMAAwEwYDVR0lBAwwCgYIKwYBBQUHAwIwDgYDVR0PAQH/BAQDAgOo
MBEGCWCGSAGG+EIBAQQEAwIAATAdBgNVHQ4EFgQUdSGb3lUCdF7rgCQi24HKAJ4e
ligwCgYIKoZIzj0EAwIDaQAwZgIxAOLRLWoS48X3gZIMcy09cn7UovJ+teNc5pPF
ckidgb7g3+jUxz9z8eYXMQBz6S6J0QIxAOE7dquylBQ/uM7+G0rTxadJeEjZIPrR
8+lFJ/LJoMz+dToR2p+kLvmhz1UJwmk9eA==
-----END CERTIFICATE-----
