Certificate:
    Data:
        Version: 3 (0x2)
        Serial Number:
            01:63:4f:9f:2c:33:31:ee:91:5f:f5:8b:53:fa:8b:ae:f7:51:b2:39
        Signature Algorithm: ecdsa-with-SHA256
        Issuer: CN = ECC explicit supersingular curve cofactor 1
        Validity
            Not Before: Dec 29 14:37:56 2019 GMT
            Not After : Dec  5 14:37:56 2119 GMT
        Subject: CN = ECC explicit supersingular curve cofactor 1
        Subject Public Key Info:
            Public Key Algorithm: id-ecPublicKey
                Public-Key: (24 bit)
                pub:
                    04:00:11:22:52:64:d2
                Field Type: prime-field
                Prime: 9543371 (0x919ecb)
                A:    8197885 (0x7d16fd)
                B:    668912 (0xa34f0)
                Generator (uncompressed): 1226373710292950 (0x45b61615d27d6)
                Order:  9543372 (0x919ecc)
                Cofactor:  1 (0x1)
        X509v3 extensions:
            X509v3 Subject Key Identifier:
                75:D5:96:58:C0:B8:EC:AF:0F:67:09:ED:2A:B0:65:15:53:B4:84:52
            X509v3 Authority Key Identifier:
                keyid:75:D5:96:58:C0:B8:EC:AF:0F:67:09:ED:2A:B0:65:15:53:B4:84:52

            X509v3 Basic Constraints: critical
                CA:TRUE
    Signature Algorithm: ecdsa-with-SHA256
         30:20:02:0e:2e:15:a2:45:be:23:f6:75:74:f0:88:c4:22:27:
         02:0e:24:52:fd:94:fe:87:61:ee:94:37:eb:8f:ef:12
-----BEGIN CERTIFICATE-----
MIIBjjCCAVmgAwIBAgIUAWNPnywzMe6RX/WLU/qLrvdRsjkwCgYIKoZIzj0EAwIw
NjE0MDIGA1UEAwwrRUNDIGV4cGxpY2l0IHN1cGVyc2luZ3VsYXIgY3VydmUgY29m
YWN0b3IgMTAgFw0xOTEyMjkxNDM3NTZaGA8yMTE5MTIwNTE0Mzc1NlowNjE0MDIG
A1UEAwwrRUNDIGV4cGxpY2l0IHN1cGVyc2luZ3VsYXIgY3VydmUgY29mYWN0b3Ig
MTBJMD0GByqGSM49AgEwMgIBATAPBgcqhkjOPQEBAgQAkZ7LMAoEA30W/QQDCjTw
BAcEW2FhXSfWAgQAkZ7MAgEBAwgABAARIlJk0qNTMFEwHQYDVR0OBBYEFHXVlljA
uOyvD2cJ7SqwZRVTtIRSMB8GA1UdIwQYMBaAFHXVlljAuOyvD2cJ7SqwZRVTtIRS
MA8GA1UdEwEB/wQFMAMBAf8wCgYIKoZIzj0EAwIDIwAwIAIOLhWiRb4j9nV08IjE
IicCDiRS/ZT+h2HulDfrj+8S
-----END CERTIFICATE-----
