Certificate:
    Data:
        Version: 3 (0x2)
        Serial Number:
            01:63:4f:9f:2c:33:31:ee:91:5f:f5:8b:53:fa:8b:ae:f7:51:b2:39
        Signature Algorithm: ecdsa-with-SHA256
        Issuer: CN = ECC explicit parameter encoding of singular curve
        Validity
            Not Before: Dec 29 14:37:56 2019 GMT
            Not After : Dec  5 14:37:56 2119 GMT
        Subject: CN = ECC explicit parameter encoding of singular curve
        Subject Public Key Info:
            Public Key Algorithm: id-ecPublicKey
                Public-Key: (112 bit)
                pub:
                    04:00:00:00:00:00:00:00:00:00:00:00:12:34:56:
                    77:83:2c:d7:bf:22:88:aa:68:de:c8:62:b8:4e
                Field Type: prime-field
                Prime:
                    00:db:7c:2a:bf:62:e3:5e:66:80:76:be:ad:20:8b
                A:    12345 (0x3039)
                B:
                    00:87:61:93:7b:71:78:aa:79:4b:4b:a9:4f:98:58
                Generator (uncompressed):
                    04:00:00:00:00:00:00:00:00:00:00:00:12:34:56:
                    77:83:2c:d7:bf:22:88:aa:68:de:c8:62:b8:4e
                Order:
                    00:db:7c:2a:bf:62:e3:5e:76:28:df:ac:65:61:c5
                Cofactor:  1 (0x1)
                Seed:
                    00:f5:0b:02:8e:4d:69:6e:67:68:75:61:51:75:29:
                    04:72:78:3f:b1
        X509v3 extensions:
            X509v3 Subject Key Identifier:
                75:D5:96:58:C0:B8:EC:AF:0F:67:09:ED:2A:B0:65:15:53:B4:84:52
            X509v3 Authority Key Identifier:
                keyid:75:D5:96:58:C0:B8:EC:AF:0F:67:09:ED:2A:B0:65:15:53:B4:84:52

            X509v3 Basic Constraints: critical
                CA:TRUE
    Signature Algorithm: ecdsa-with-SHA256
         30:20:02:0e:2e:15:a2:45:be:23:f6:75:74:f0:88:c4:22:27:
         02:0e:24:52:fd:94:fe:87:61:ee:94:37:eb:8f:ef:12
-----BEGIN CERTIFICATE-----
MIIB/zCCAcqgAwIBAgIUAWNPnywzMe6RX/WLU/qLrvdRsjkwCgYIKoZIzj0EAwIw
PDE6MDgGA1UEAwwxRUNDIGV4cGxpY2l0IHBhcmFtZXRlciBlbmNvZGluZyBvZiBz
aW5ndWxhciBjdXJ2ZTAgFw0xOTEyMjkxNDM3NTZaGA8yMTE5MTIwNTE0Mzc1Nlow
PDE6MDgGA1UEAwwxRUNDIGV4cGxpY2l0IHBhcmFtZXRlciBlbmNvZGluZyBvZiBz
aW5ndWxhciBjdXJ2ZTCBrTCBigYHKoZIzj0CATB/AgEBMBoGByqGSM49AQECDwDb
fCq/YuNeZoB2vq0gizArBAIwOQQOh2GTe3F4qnlLS6lPmFgDFQAA9QsCjk1pbmdo
dWFRdSkEcng/sQQdBAAAAAAAAAAAAAAAEjRWd4Ms178iiKpo3shiuE4CDwDbfCq/
YuNedijfrGVhxQIBAQMeAAQAAAAAAAAAAAAAABI0VneDLNe/IoiqaN7IYrhOo1Mw
UTAdBgNVHQ4EFgQUddWWWMC47K8PZwntKrBlFVO0hFIwHwYDVR0jBBgwFoAUddWW
WMC47K8PZwntKrBlFVO0hFIwDwYDVR0TAQH/BAUwAwEB/zAKBggqhkjOPQQDAgMj
ADAgAg4uFaJFviP2dXTwiMQiJwIOJFL9lP6HYe6UN+uP7xI=
-----END CERTIFICATE-----
