Certificate:
    Data:
        Version: 3 (0x2)
        Serial Number:
            1a:25:a6:ba:72:00:f2:a7:db:ee:3a:c4:21:80:44:4d:50:40:53:e5
        Signature Algorithm: ecdsa-with-SHA256
        Issuer: CN = Explicit F_p curve with cofactor outside Hasse bound
        Validity
            Not Before: Jan 26 12:49:44 2020 GMT
            Not After : Jan  2 12:49:44 2120 GMT
        Subject: CN = Explicit F_p curve with cofactor outside Hasse bound
        Subject Public Key Info:
            Public Key Algorithm: id-ecPublicKey
                Public-Key: (121 bit)
                pub:
                    04:11:3b:b7:3c:2f:79:ae:be:62:9e:fd:27:75:c8:
                    ed:b9:10:be:5c:7a:8b:95:21:8c:26:0f:18:34:51:
                    dc:04:fe
                Field Type: prime-field
                Prime:
                    00:93:56:fa:2d:7f:e6:78:a0:36:ef:a0:3c:de:de:
                    df:b3
                A:
                    34:75:a9:c1:94:9f:64:22:ee:1f:bc:2d:70:b9:e0:
                    6e
                B:
                    6e:ae:0f:0b:f4:28:43:f3:0b:17:cb:0b:ae:19:4b:
                    99
                Generator (uncompressed):
                    04:90:9f:68:75:50:47:f9:a8:a7:65:c6:8e:73:c9:
                    e2:fc:2f:51:52:a4:9d:e4:fa:34:61:30:b6:8d:d1:
                    2d:5a:c2
                Order:
                    01:50:c6:ce:1e:db:33:5c:dd:9a:83:af:51:9a:14:
                    fd
                Cofactor:  123 (0x7b)
        X509v3 extensions:
            X509v3 Subject Key Identifier:
                49:A0:45:C0:4C:96:6C:E7:09:75:1C:6D:A3:9E:5B:2B:14:9D:47:E2
            X509v3 Authority Key Identifier:
                keyid:49:A0:45:C0:4C:96:6C:E7:09:75:1C:6D:A3:9E:5B:2B:14:9D:47:E2

            X509v3 Basic Constraints: critical
                CA:TRUE
    Signature Algorithm: ecdsa-with-SHA256
         30:24:02:10:01:09:33:0a:60:d3:59:89:ce:06:d6:12:04:4f:
         91:21:02:10:00:a7:17:97:9b:b9:31:32:31:7e:82:4c:d6:e1:
         4e:97
-----BEGIN CERTIFICATE-----
MIICDTCCAdSgAwIBAgIUGiWmunIA8qfb7jrEIYBETVBAU+UwCgYIKoZIzj0EAwIw
PzE9MDsGA1UEAww0RXhwbGljaXQgRl9wIGN1cnZlIHdpdGggY29mYWN0b3Igb3V0
c2lkZSBIYXNzZSBib3VuZDAgFw0yMDAxMjYxMjQ5NDRaGA8yMTIwMDEwMjEyNDk0
NFowPzE9MDsGA1UEAww0RXhwbGljaXQgRl9wIGN1cnZlIHdpdGggY29mYWN0b3Ig
b3V0c2lkZSBIYXNzZSBib3VuZDCBsTCBigYHKoZIzj0CATB/AgEBMBwGByqGSM49
AQECEQCTVvotf+Z4oDbvoDze3t+zMCQEEDR1qcGUn2Qi7h+8LXC54G4EEG6uDwv0
KEPzCxfLC64ZS5kEIQSQn2h1UEf5qKdlxo5zyeL8L1FSpJ3k+jRhMLaN0S1awgIQ
AVDGzh7bM1zdmoOvUZoU/QIBewMiAAQRO7c8L3muvmKe/Sd1yO25EL5ceouVIYwm
Dxg0UdwE/qNTMFEwHQYDVR0OBBYEFEmgRcBMlmznCXUcbaOeWysUnUfiMB8GA1Ud
IwQYMBaAFEmgRcBMlmznCXUcbaOeWysUnUfiMA8GA1UdEwEB/wQFMAMBAf8wCgYI
KoZIzj0EAwIDJwAwJAIQAQkzCmDTWYnOBtYSBE+RIQIQAKcXl5u5MTIxfoJM1uFO
lw==
-----END CERTIFICATE-----
