Certificate:
    Data:
        Version: 3 (0x2)
        Serial Number:
            01:63:4f:9f:2c:33:31:ee:91:5f:f5:8b:53:fa:8b:ae:f7:51:b2:39
        Signature Algorithm: ecdsa-with-SHA256
        Issuer: CN = ECC explicit parameter encoding prime field
        Validity
            Not Before: Dec 29 14:37:56 2019 GMT
            Not After : Dec  5 14:37:56 2119 GMT
        Subject: CN = ECC explicit parameter encoding prime field
        Subject Public Key Info:
            Public Key Algorithm: id-ecPublicKey
            Unable to load Public Key
140427817256128:error:0D0E20DD:asn1 encoding routines:c2i_ibuf:illegal padding:crypto/asn1/a_int.c:187:
140427817256128:error:0D08303A:asn1 encoding routines:asn1_template_noexp_d2i:nested asn1 error:crypto/asn1/tasn_dec.c:627:Field=order, Type=ECPARAMETERS
140427817256128:error:0D08303A:asn1 encoding routines:asn1_template_noexp_d2i:nested asn1 error:crypto/asn1/tasn_dec.c:627:
140427817256128:error:0D07803A:asn1 encoding routines:asn1_item_embed_d2i:nested asn1 error:crypto/asn1/tasn_dec.c:253:Field=value.parameters, Type=ECPKPARAMETERS
140427817256128:error:10091075:elliptic curve routines:d2i_ECPKParameters:d2i ecpkparameters failure:crypto/ec/ec_asn1.c:915:
140427817256128:error:10090010:elliptic curve routines:d2i_ECParameters:EC lib:crypto/ec/ec_asn1.c:1133:
140427817256128:error:100DC08E:elliptic curve routines:eckey_type2param:decode error:crypto/ec/ec_ameth.c:103:
140427817256128:error:100D7010:elliptic curve routines:eckey_pub_decode:EC lib:crypto/ec/ec_ameth.c:151:
140427817256128:error:0B09407D:x509 certificate routines:x509_pubkey_decode:public key decode error:crypto/x509/x_pubkey.c:125:
        X509v3 extensions:
            X509v3 Subject Key Identifier:
                75:D5:96:58:C0:B8:EC:AF:0F:67:09:ED:2A:B0:65:15:53:B4:84:52
            X509v3 Authority Key Identifier:
                keyid:75:D5:96:58:C0:B8:EC:AF:0F:67:09:ED:2A:B0:65:15:53:B4:84:52

            X509v3 Basic Constraints: critical
                CA:TRUE
    Signature Algorithm: ecdsa-with-SHA256
         30:20:02:0e:2e:15:a2:45:be:23:f6:75:74:f0:88:c4:22:27:
         02:0e:24:52:fd:94:fe:87:61:ee:94:37:eb:8f:ef:12
-----BEGIN CERTIFICATE-----
MIIB/zCCAcqgAwIBAgIUAWNPnywzMe6RX/WLU/qLrvdRsjkwCgYIKoZIzj0EAwIw
NjE0MDIGA1UEAwwrRUNDIGV4cGxpY2l0IHBhcmFtZXRlciBlbmNvZGluZyBwcmlt
ZSBmaWVsZDAgFw0xOTEyMjkxNDM3NTZaGA8yMTE5MTIwNTE0Mzc1NlowNjE0MDIG
A1UEAwwrRUNDIGV4cGxpY2l0IHBhcmFtZXRlciBlbmNvZGluZyBwcmltZSBmaWVs
ZDCBuTCBlgYHKoZIzj0CATCBigIBATAaBgcqhkjOPQEBAg8A23wqv2LjXmaAdr6t
IIswNwQO23wqv2LjXmaAdr6tIIgEDmWe+LoEORbu3okRcCsiAxUAAPULAo5NaW5n
aHVhUXUpBHJ4P7EEHQQJSHI5mVpe52tV+cLwmKic5a+HJMCiPg4P93UAAg4AfCq/
YuNedijfrGVhxQIBewMeAARfeafo71i8gClSRpc3WAjWeuelnKQ6/DpaoKyIo1Mw
UTAdBgNVHQ4EFgQUddWWWMC47K8PZwntKrBlFVO0hFIwHwYDVR0jBBgwFoAUddWW
WMC47K8PZwntKrBlFVO0hFIwDwYDVR0TAQH/BAUwAwEB/zAKBggqhkjOPQQDAgMj
ADAgAg4uFaJFviP2dXTwiMQiJwIOJFL9lP6HYe6UN+uP7xI=
-----END CERTIFICATE-----
