Certificate:
    Data:
        Version: 3 (0x2)
        Serial Number:
            1a:25:a6:ba:72:00:f2:a7:db:ee:3a:c4:21:80:44:4d:50:40:53:e5
        Signature Algorithm: ecdsa-with-SHA256
        Issuer: CN = Explicit F_p curve with negative cofactor
        Validity
            Not Before: Jan 26 12:49:44 2020 GMT
            Not After : Jan  2 12:49:44 2120 GMT
        Subject: CN = Explicit F_p curve with negative cofactor
        Subject Public Key Info:
            Public Key Algorithm: id-ecPublicKey
            Unable to load Public Key
140312897791168:error:1006F0A4:elliptic curve routines:EC_GROUP_set_generator:unknown cofactor:crypto/ec/ec_lib.c:361:
140312897791168:error:10107010:elliptic curve routines:EC_GROUP_new_from_ecparameters:EC lib:crypto/ec/ec_asn1.c:790:
140312897791168:error:10108010:elliptic curve routines:EC_GROUP_new_from_ecpkparameters:EC lib:crypto/ec/ec_asn1.c:892:
140312897791168:error:1009107F:elliptic curve routines:d2i_ECPKParameters:pkparameters2group failure:crypto/ec/ec_asn1.c:921:
140312897791168:error:10090010:elliptic curve routines:d2i_ECParameters:EC lib:crypto/ec/ec_asn1.c:1133:
140312897791168:error:100DC08E:elliptic curve routines:eckey_type2param:decode error:crypto/ec/ec_ameth.c:103:
140312897791168:error:100D7010:elliptic curve routines:eckey_pub_decode:EC lib:crypto/ec/ec_ameth.c:151:
140312897791168:error:0B09407D:x509 certificate routines:x509_pubkey_decode:public key decode error:crypto/x509/x_pubkey.c:125:
        X509v3 extensions:
            X509v3 Subject Key Identifier:
                49:A0:45:C0:4C:96:6C:E7:09:75:1C:6D:A3:9E:5B:2B:14:9D:47:E2
            X509v3 Authority Key Identifier:
                keyid:49:A0:45:C0:4C:96:6C:E7:09:75:1C:6D:A3:9E:5B:2B:14:9D:47:E2

            X509v3 Basic Constraints: critical
                CA:TRUE
    Signature Algorithm: ecdsa-with-SHA256
         30:24:02:10:01:09:33:0a:60:d3:59:89:ce:06:d6:12:04:4f:
         91:21:02:10:00:a7:17:97:9b:b9:31:32:31:7e:82:4c:d6:e1:
         4e:97
-----BEGIN CERTIFICATE-----
MIIB9zCCAb6gAwIBAgIUGiWmunIA8qfb7jrEIYBETVBAU+UwCgYIKoZIzj0EAwIw
NDEyMDAGA1UEAwwpRXhwbGljaXQgRl9wIGN1cnZlIHdpdGggbmVnYXRpdmUgY29m
YWN0b3IwIBcNMjAwMTI2MTI0OTQ0WhgPMjEyMDAxMDIxMjQ5NDRaMDQxMjAwBgNV
BAMMKUV4cGxpY2l0IEZfcCBjdXJ2ZSB3aXRoIG5lZ2F0aXZlIGNvZmFjdG9yMIGx
MIGKBgcqhkjOPQIBMH8CAQEwHAYHKoZIzj0BAQIRAJNW+i1/5nigNu+gPN7e37Mw
JAQQNHWpwZSfZCLuH7wtcLngbgQQbq4PC/QoQ/MLF8sLrhlLmQQhBJCfaHVQR/mo
p2XGjnPJ4vwvUVKkneT6NGEwto3RLVrCAhABUMbOHtszXN2ag69RmhT9AgH/AyIA
BBE7tzwvea6+Yp79J3XI7bkQvlx6i5UhjCYPGDRR3AT+o1MwUTAdBgNVHQ4EFgQU
SaBFwEyWbOcJdRxto55bKxSdR+IwHwYDVR0jBBgwFoAUSaBFwEyWbOcJdRxto55b
KxSdR+IwDwYDVR0TAQH/BAUwAwEB/zAKBggqhkjOPQQDAgMnADAkAhABCTMKYNNZ
ic4G1hIET5EhAhAApxeXm7kxMjF+gkzW4U6X
-----END CERTIFICATE-----
