Certificate:
    Data:
        Version: 3 (0x2)
        Serial Number: 1 (0x1)
        Signature Algorithm: ecdsa-with-SHA256
        Issuer: CN = EC public key is generator point G
        Validity
            Not Before: Jan  1 00:00:00 2018 GMT
            Not After : Jan  1 00:00:00 2035 GMT
        Subject: CN = EC public key is generator point G
        Subject Public Key Info:
            Public Key Algorithm: id-ecPublicKey
                Public-Key: (384 bit)
                pub:
                    04:aa:87:ca:22:be:8b:05:37:8e:b1:c7:1e:f3:20:
                    ad:74:6e:1d:3b:62:8b:a7:9b:98:59:f7:41:e0:82:
                    54:2a:38:55:02:f2:5d:bf:55:29:6c:3a:54:5e:38:
                    72:76:0a:b7:36:17:de:4a:96:26:2c:6f:5d:9e:98:
                    bf:92:92:dc:29:f8:f4:1d:bd:28:9a:14:7c:e9:da:
                    31:13:b5:f0:b8:c0:0a:60:b1:ce:1d:7e:81:9d:7a:
                    43:1d:7c:90:ea:0e:5f
                ASN1 OID: secp384r1
                NIST CURVE: P-384
        X509v3 extensions:
            X509v3 Authority Key Identifier: 
                keyid:23:46:1F:CC:CB:56:9B:4F:6C:B4:1C:F4:6A:E4:AF:E3:2B:BF:94:69

            X509v3 Basic Constraints: critical
                CA:FALSE
            X509v3 Extended Key Usage: 
                TLS Web Client Authentication
            X509v3 Key Usage: critical
                Digital Signature, Key Encipherment, Key Agreement
            Netscape Cert Type: 
                SSL Client
            X509v3 Subject Key Identifier: 
                75:21:9B:DE:55:02:74:5E:EB:80:24:22:DB:81:CA:00:9E:1E:96:28
    Signature Algorithm: ecdsa-with-SHA256
         30:66:02:31:00:e2:d1:2d:6a:12:e3:c5:f7:81:92:0c:73:2d:
         3d:72:7e:d4:a2:f2:7e:b5:e3:5c:e6:93:c5:72:48:9d:81:be:
         e0:df:e8:d4:c7:3f:73:f1:e6:17:31:00:73:e9:2e:89:d1:02:
         31:00:e1:3b:76:ab:b2:94:14:3f:b8:ce:fe:1b:4a:d3:c5:a7:
         49:78:48:d9:20:fa:d1:f3:e9:45:27:f2:c9:a0:cc:fe:75:3a:
         11:da:9f:a4:2e:f9:a1:cf:55:09:c2:69:3d:78
-----BEGIN CERTIFICATE-----
MIICETCCAZagAwIBAgIBATAKBggqhkjOPQQDAjAtMSswKQYDVQQDDCJFQyBwdWJs
aWMga2V5IGlzIGdlbmVyYXRvciBwb2ludCBHMB4XDTE4MDEwMTAwMDAwMFoXDTM1
MDEwMTAwMDAwMFowLTErMCkGA1UEAwwiRUMgcHVibGljIGtleSBpcyBnZW5lcmF0
b3IgcG9pbnQgRzB2MBAGByqGSM49AgEGBSuBBAAiA2IABKqHyiK+iwU3jrHHHvMg
rXRuHTtii6ebmFn3QeCCVCo4VQLyXb9VKWw6VF44cnYKtzYX3kqWJixvXZ6Yv5KS
3Cn49B29KJoUfOnaMRO18LjACmCxzh1+gZ16Qx18kOoOX6OBiTCBhjAfBgNVHSME
GDAWgBQjRh/My1abT2y0HPRq5K/jK7+UaTAMBgNVHRMBAf8EAjAAMBMGA1UdJQQM
MAoGCCsGAQUFBwMCMA4GA1UdDwEB/wQEAwIDqDARBglghkgBhvhCAQEEBAMCB4Aw
HQYDVR0OBBYEFHUhm95VAnRe64AkItuBygCeHpYoMAoGCCqGSM49BAMCA2kAMGYC
MQDi0S1qEuPF94GSDHMtPXJ+1KLyfrXjXOaTxXJInYG+4N/o1Mc/c/HmFzEAc+ku
idECMQDhO3arspQUP7jO/htK08WnSXhI2SD60fPpRSfyyaDM/nU6EdqfpC75oc9V
CcJpPXg=
-----END CERTIFICATE-----
