Certificate:
    Data:
        Version: 3 (0x2)
        Serial Number:
            01:63:4f:9f:2c:33:31:ee:91:5f:f5:8b:53:fa:8b:ae:f7:51:b2:39
        Signature Algorithm: ecdsa-with-SHA256
        Issuer: CN = ECC explicit parameter encoding with non-bytestring seed
        Validity
            Not Before: Dec 29 14:37:56 2019 GMT
            Not After : Dec  5 14:37:56 2119 GMT
        Subject: CN = ECC explicit parameter encoding with non-bytestring seed
        Subject Public Key Info:
            Public Key Algorithm: id-ecPublicKey
                Public-Key: (112 bit)
                pub:
                    04:5f:79:a7:e8:ef:58:bc:80:29:52:46:97:37:58:
                    08:d6:7a:e7:a5:9c:a4:3a:fc:3a:5a:a0:ac:88
                Field Type: prime-field
                Prime:
                    00:db:7c:2a:bf:62:e3:5e:66:80:76:be:ad:20:8b
                A:
                    00:db:7c:2a:bf:62:e3:5e:66:80:76:be:ad:20:88
                B:
                    65:9e:f8:ba:04:39:16:ee:de:89:11:70:2b:22
                Generator (uncompressed):
                    04:09:48:72:39:99:5a:5e:e7:6b:55:f9:c2:f0:98:
                    a8:9c:e5:af:87:24:c0:a2:3e:0e:0f:f7:75:00
                Order:
                    00:db:7c:2a:bf:62:e3:5e:76:28:df:ac:65:61:c5
                Cofactor:  1 (0x1)
                Seed:
                    00:f5:0b:02:8e:4d:69:6e:67:68:75:61:51:75:29:
                    04:72:78:3f:b1
        X509v3 extensions:
            X509v3 Subject Key Identifier:
                75:D5:96:58:C0:B8:EC:AF:0F:67:09:ED:2A:B0:65:15:53:B4:84:52
            X509v3 Authority Key Identifier:
                keyid:75:D5:96:58:C0:B8:EC:AF:0F:67:09:ED:2A:B0:65:15:53:B4:84:52

            X509v3 Basic Constraints: critical
                CA:TRUE
    Signature Algorithm: ecdsa-with-SHA256
         30:20:02:0e:2e:15:a2:45:be:23:f6:75:74:f0:88:c4:22:27:
         02:0e:24:52:fd:94:fe:87:61:ee:94:37:eb:8f:ef:12
-----BEGIN CERTIFICATE-----
MIICGjCCAeWgAwIBAgIUAWNPnywzMe6RX/WLU/qLrvdRsjkwCgYIKoZIzj0EAwIw
QzFBMD8GA1UEAww4RUNDIGV4cGxpY2l0IHBhcmFtZXRlciBlbmNvZGluZyB3aXRo
IG5vbi1ieXRlc3RyaW5nIHNlZWQwIBcNMTkxMjI5MTQzNzU2WhgPMjExOTEyMDUx
NDM3NTZaMEMxQTA/BgNVBAMMOEVDQyBleHBsaWNpdCBwYXJhbWV0ZXIgZW5jb2Rp
bmcgd2l0aCBub24tYnl0ZXN0cmluZyBzZWVkMIG6MIGXBgcqhkjOPQIBMIGLAgEB
MBoGByqGSM49AQECDwDbfCq/YuNeZoB2vq0gizA3BA7bfCq/YuNeZoB2vq0giAQO
ZZ74ugQ5Fu7eiRFwKyIDFQcA9QsCjk1pbmdodWFRdSkEcng/sQQdBAlIcjmZWl7n
a1X5wvCYqJzlr4ckwKI+Dg/3dQACDwDbfCq/YuNedijfrGVhxQIBAQMeAARfeafo
71i8gClSRpc3WAjWeuelnKQ6/DpaoKyIo1MwUTAdBgNVHQ4EFgQUddWWWMC47K8P
ZwntKrBlFVO0hFIwHwYDVR0jBBgwFoAUddWWWMC47K8PZwntKrBlFVO0hFIwDwYD
VR0TAQH/BAUwAwEB/zAKBggqhkjOPQQDAgMjADAgAg4uFaJFviP2dXTwiMQiJwIO
JFL9lP6HYe6UN+uP7xI=
-----END CERTIFICATE-----
