Certificate:
    Data:
        Version: 3 (0x2)
        Serial Number:
            01:63:4f:9f:2c:33:31:ee:91:5f:f5:8b:53:fa:8b:ae:f7:51:b2:39
        Signature Algorithm: ecdsa-with-SHA256
        Issuer: CN = ECC explicit supersingular curve cofactor 76
        Validity
            Not Before: Dec 29 14:37:56 2019 GMT
            Not After : Dec  5 14:37:56 2119 GMT
        Subject: CN = ECC explicit supersingular curve cofactor 76
        Subject Public Key Info:
            Public Key Algorithm: id-ecPublicKey
                Public-Key: (25 bit)
                pub:
                    04:00:00:01:23:6f:3a:2c:04
                Field Type: prime-field
                Prime: 2339653919 (0x8b74491f)
                A:    1454872340 (0x56b79714)
                B:    2303212229 (0x89483ac5)
                Generator (uncompressed):
                    04:81:f3:a7:2f:47:90:3c:7a
                Order:  30784920 (0x1d5bd98)
                Cofactor:  76 (0x4c)
        X509v3 extensions:
            X509v3 Subject Key Identifier:
                75:D5:96:58:C0:B8:EC:AF:0F:67:09:ED:2A:B0:65:15:53:B4:84:52
            X509v3 Authority Key Identifier:
                keyid:75:D5:96:58:C0:B8:EC:AF:0F:67:09:ED:2A:B0:65:15:53:B4:84:52

            X509v3 Basic Constraints: critical
                CA:TRUE
    Signature Algorithm: ecdsa-with-SHA256
         30:20:02:0e:2e:15:a2:45:be:23:f6:75:74:f0:88:c4:22:27:
         02:0e:24:52:fd:94:fe:87:61:ee:94:37:eb:8f:ef:12
-----BEGIN CERTIFICATE-----
MIIBlzCCAWKgAwIBAgIUAWNPnywzMe6RX/WLU/qLrvdRsjkwCgYIKoZIzj0EAwIw
NzE1MDMGA1UEAwwsRUNDIGV4cGxpY2l0IHN1cGVyc2luZ3VsYXIgY3VydmUgY29m
YWN0b3IgNzYwIBcNMTkxMjI5MTQzNzU2WhgPMjExOTEyMDUxNDM3NTZaMDcxNTAz
BgNVBAMMLEVDQyBleHBsaWNpdCBzdXBlcnNpbmd1bGFyIGN1cnZlIGNvZmFjdG9y
IDc2MFAwQgYHKoZIzj0CATA3AgEBMBAGByqGSM49AQECBQCLdEkfMAwEBFa3lxQE
BIlIOsUECQSB86cvR5A8egIEAdW9mAIBTAMKAAQAAAEjbzosBKNTMFEwHQYDVR0O
BBYEFHXVlljAuOyvD2cJ7SqwZRVTtIRSMB8GA1UdIwQYMBaAFHXVlljAuOyvD2cJ
7SqwZRVTtIRSMA8GA1UdEwEB/wQFMAMBAf8wCgYIKoZIzj0EAwIDIwAwIAIOLhWi
Rb4j9nV08IjEIicCDiRS/ZT+h2HulDfrj+8S
-----END CERTIFICATE-----
