Certificate:
    Data:
        Version: 3 (0x2)
        Serial Number:
            01:63:4f:9f:2c:33:31:ee:91:5f:f5:8b:53:fa:8b:ae:f7:51:b2:39
        Signature Algorithm: ecdsa-with-SHA256
        Issuer: CN = ECC explicit parameter encoding with empty seed
        Validity
            Not Before: Dec 29 14:37:56 2019 GMT
            Not After : Dec  5 14:37:56 2119 GMT
        Subject: CN = ECC explicit parameter encoding with empty seed
        Subject Public Key Info:
            Public Key Algorithm: id-ecPublicKey
            Unable to load Public Key
140159618499776:error:10107041:elliptic curve routines:EC_GROUP_new_from_ecparameters:malloc failure:crypto/ec/ec_asn1.c:739:
140159618499776:error:10108010:elliptic curve routines:EC_GROUP_new_from_ecpkparameters:EC lib:crypto/ec/ec_asn1.c:892:
140159618499776:error:1009107F:elliptic curve routines:d2i_ECPKParameters:pkparameters2group failure:crypto/ec/ec_asn1.c:921:
140159618499776:error:10090010:elliptic curve routines:d2i_ECParameters:EC lib:crypto/ec/ec_asn1.c:1133:
140159618499776:error:100DC08E:elliptic curve routines:eckey_type2param:decode error:crypto/ec/ec_ameth.c:103:
140159618499776:error:100D7010:elliptic curve routines:eckey_pub_decode:EC lib:crypto/ec/ec_ameth.c:151:
140159618499776:error:0B09407D:x509 certificate routines:x509_pubkey_decode:public key decode error:crypto/x509/x_pubkey.c:125:
        X509v3 extensions:
            X509v3 Subject Key Identifier:
                75:D5:96:58:C0:B8:EC:AF:0F:67:09:ED:2A:B0:65:15:53:B4:84:52
            X509v3 Authority Key Identifier:
                keyid:75:D5:96:58:C0:B8:EC:AF:0F:67:09:ED:2A:B0:65:15:53:B4:84:52

            X509v3 Basic Constraints: critical
                CA:TRUE
    Signature Algorithm: ecdsa-with-SHA256
         30:20:02:0e:2e:15:a2:45:be:23:f6:75:74:f0:88:c4:22:27:
         02:0e:24:52:fd:94:fe:87:61:ee:94:37:eb:8f:ef:12
-----BEGIN CERTIFICATE-----
MIIB8zCCAb6gAwIBAgIUAWNPnywzMe6RX/WLU/qLrvdRsjkwCgYIKoZIzj0EAwIw
OjE4MDYGA1UEAwwvRUNDIGV4cGxpY2l0IHBhcmFtZXRlciBlbmNvZGluZyB3aXRo
IGVtcHR5IHNlZWQwIBcNMTkxMjI5MTQzNzU2WhgPMjExOTEyMDUxNDM3NTZaMDox
ODA2BgNVBAMML0VDQyBleHBsaWNpdCBwYXJhbWV0ZXIgZW5jb2Rpbmcgd2l0aCBl
bXB0eSBzZWVkMIGlMIGCBgcqhkjOPQIBMHcCAQEwGgYHKoZIzj0BAQIPANt8Kr9i
415mgHa+rSCLMCMEDtt8Kr9i415mgHa+rSCIBA5lnvi6BDkW7t6JEXArIgMBAAQd
BAlIcjmZWl7na1X5wvCYqJzlr4ckwKI+Dg/3dQACDwDbfCq/YuNedijfrGVhxQIB
AQMeAARfeafo71i8gClSRpc3WAjWeuelnKQ6/DpaoKyIo1MwUTAdBgNVHQ4EFgQU
ddWWWMC47K8PZwntKrBlFVO0hFIwHwYDVR0jBBgwFoAUddWWWMC47K8PZwntKrBl
FVO0hFIwDwYDVR0TAQH/BAUwAwEB/zAKBggqhkjOPQQDAgMjADAgAg4uFaJFviP2
dXTwiMQiJwIOJFL9lP6HYe6UN+uP7xI=
-----END CERTIFICATE-----
