Certificate:
    Data:
        Version: 3 (0x2)
        Serial Number:
            01:63:4f:9f:2c:33:31:ee:91:5f:f5:8b:53:fa:8b:ae:f7:51:b2:39
        Signature Algorithm: ecdsa-with-SHA256
        Issuer: CN = ECC explicit parameter encoding with long seed
        Validity
            Not Before: Dec 29 14:37:56 2019 GMT
            Not After : Dec  5 14:37:56 2119 GMT
        Subject: CN = ECC explicit parameter encoding with long seed
        Subject Public Key Info:
            Public Key Algorithm: id-ecPublicKey
                Public-Key: (112 bit)
                pub:
                    04:5f:79:a7:e8:ef:58:bc:80:29:52:46:97:37:58:
                    08:d6:7a:e7:a5:9c:a4:3a:fc:3a:5a:a0:ac:88
                Field Type: prime-field
                Prime:
                    00:db:7c:2a:bf:62:e3:5e:66:80:76:be:ad:20:8b
                A:
                    00:db:7c:2a:bf:62:e3:5e:66:80:76:be:ad:20:88
                B:
                    65:9e:f8:ba:04:39:16:ee:de:89:11:70:2b:22
                Generator (uncompressed):
                    04:09:48:72:39:99:5a:5e:e7:6b:55:f9:c2:f0:98:
                    a8:9c:e5:af:87:24:c0:a2:3e:0e:0f:f7:75:00
                Order:
                    00:db:7c:2a:bf:62:e3:5e:76:28:df:ac:65:61:c5
                Cofactor:  1 (0x1)
                Seed:
                    00:f5:0b:02:8e:4d:69:6e:67:68:75:61:51:75:29:
                    04:72:78:3f:b1
        X509v3 extensions:
            X509v3 Subject Key Identifier:
                75:D5:96:58:C0:B8:EC:AF:0F:67:09:ED:2A:B0:65:15:53:B4:84:52
            X509v3 Authority Key Identifier:
                keyid:75:D5:96:58:C0:B8:EC:AF:0F:67:09:ED:2A:B0:65:15:53:B4:84:52

            X509v3 Basic Constraints: critical
                CA:TRUE
    Signature Algorithm: ecdsa-with-SHA256
         30:20:02:0e:2e:15:a2:45:be:23:f6:75:74:f0:88:c4:22:27:
         02:0e:24:52:fd:94:fe:87:61:ee:94:37:eb:8f:ef:12
-----BEGIN CERTIFICATE-----
MIICLjCCAfmgAwIBAgIUAWNPnywzMe6RX/WLU/qLrvdRsjkwCgYIKoZIzj0EAwIw
OTE3MDUGA1UEAwwuRUNDIGV4cGxpY2l0IHBhcmFtZXRlciBlbmNvZGluZyB3aXRo
IGxvbmcgc2VlZDAgFw0xOTEyMjkxNDM3NTZaGA8yMTE5MTIwNTE0Mzc1NlowOTE3
MDUGA1UEAwwuRUNDIGV4cGxpY2l0IHBhcmFtZXRlciBlbmNvZGluZyB3aXRoIGxv
bmcgc2VlZDCB4jCBvwYHKoZIzj0CATCBswIBATAaBgcqhkjOPQEBAg8A23wqv2Lj
XmaAdr6tIIswXwQO23wqv2LjXmaAdr6tIIgEDmWe+LoEORbu3okRcCsiAz0AAPUL
Ao5NaW5naHVhUXUpBHJ4P7EA9QsCjk1pbmdodWFRdSkEcng/sQD1CwKOTWluZ2h1
YVF1KQRyeD+xBB0ECUhyOZlaXudrVfnC8JionOWvhyTAoj4OD/d1AAIPANt8Kr9i
4152KN+sZWHFAgEBAx4ABF95p+jvWLyAKVJGlzdYCNZ656WcpDr8OlqgrIijUzBR
MB0GA1UdDgQWBBR11ZZYwLjsrw9nCe0qsGUVU7SEUjAfBgNVHSMEGDAWgBR11ZZY
wLjsrw9nCe0qsGUVU7SEUjAPBgNVHRMBAf8EBTADAQH/MAoGCCqGSM49BAMCAyMA
MCACDi4VokW+I/Z1dPCIxCInAg4kUv2U/odh7pQ364/vEg==
-----END CERTIFICATE-----
