Certificate:
    Data:
        Version: 3 (0x2)
        Serial Number:
            01:63:4f:9f:2c:33:31:ee:91:5f:f5:8b:53:fa:8b:ae:f7:51:b2:39
        Signature Algorithm: ecdsa-with-SHA256
        Issuer: CN = "ECC explicit with low embedding degree (fails MOV condition), cofactor 6"
        Validity
            Not Before: Dec 29 14:37:56 2019 GMT
            Not After : Dec  5 14:37:56 2119 GMT
        Subject: CN = "ECC explicit with low embedding degree (fails MOV condition), cofactor 6"
        Subject Public Key Info:
            Public Key Algorithm: id-ecPublicKey
                Public-Key: (29 bit)
                pub:
                    04:00:00:12:34:47:c0:33:68
                Field Type: prime-field
                Prime: 3041831179 (0xb54ea90b)
                A:    1809940881 (0x6be18191)
                B:    1233979462 (0x498d0846)
                Generator (uncompressed):
                    04:0f:f3:a4:64:ad:f8:c4:58
                Order:  506956536 (0x1e378af8)
                Cofactor:  6 (0x6)
        X509v3 extensions:
            X509v3 Subject Key Identifier:
                75:D5:96:58:C0:B8:EC:AF:0F:67:09:ED:2A:B0:65:15:53:B4:84:52
            X509v3 Authority Key Identifier:
                keyid:75:D5:96:58:C0:B8:EC:AF:0F:67:09:ED:2A:B0:65:15:53:B4:84:52

            X509v3 Basic Constraints: critical
                CA:TRUE
    Signature Algorithm: ecdsa-with-SHA256
         30:20:02:0e:2e:15:a2:45:be:23:f6:75:74:f0:88:c4:22:27:
         02:0e:24:52:fd:94:fe:87:61:ee:94:37:eb:8f:ef:12
-----BEGIN CERTIFICATE-----
MIIBzzCCAZqgAwIBAgIUAWNPnywzMe6RX/WLU/qLrvdRsjkwCgYIKoZIzj0EAwIw
UzFRME8GA1UEAwxIRUNDIGV4cGxpY2l0IHdpdGggbG93IGVtYmVkZGluZyBkZWdy
ZWUgKGZhaWxzIE1PViBjb25kaXRpb24pLCBjb2ZhY3RvciA2MCAXDTE5MTIyOTE0
Mzc1NloYDzIxMTkxMjA1MTQzNzU2WjBTMVEwTwYDVQQDDEhFQ0MgZXhwbGljaXQg
d2l0aCBsb3cgZW1iZWRkaW5nIGRlZ3JlZSAoZmFpbHMgTU9WIGNvbmRpdGlvbiks
IGNvZmFjdG9yIDYwUDBCBgcqhkjOPQIBMDcCAQEwEAYHKoZIzj0BAQIFALVOqQsw
DAQEa+GBkQQESY0IRgQJBA/zpGSt+MRYAgQeN4r4AgEGAwoABAAAEjRHwDNoo1Mw
UTAdBgNVHQ4EFgQUddWWWMC47K8PZwntKrBlFVO0hFIwHwYDVR0jBBgwFoAUddWW
WMC47K8PZwntKrBlFVO0hFIwDwYDVR0TAQH/BAUwAwEB/zAKBggqhkjOPQQDAgMj
ADAgAg4uFaJFviP2dXTwiMQiJwIOJFL9lP6HYe6UN+uP7xI=
-----END CERTIFICATE-----
