Certificate:
    Data:
        Version: 3 (0x2)
        Serial Number:
            01:63:4f:9f:2c:33:31:ee:91:5f:f5:8b:53:fa:8b:ae:f7:51:b2:39
        Signature Algorithm: ecdsa-with-SHA256
        Issuer: CN = ECC explicit anomalous curve cofactor 1
        Validity
            Not Before: Dec 29 14:37:56 2019 GMT
            Not After : Dec  5 14:37:56 2119 GMT
        Subject: CN = ECC explicit anomalous curve cofactor 1
        Subject Public Key Info:
            Public Key Algorithm: id-ecPublicKey
                Public-Key: (32 bit)
                pub:
                    04:00:00:11:22:14:93:a5:68
                Field Type: prime-field
                Prime: 3341924407 (0xc731b837)
                A:    1710273484 (0x65f0b3cc)
                B:    2120250680 (0x7e607538)
                Generator (uncompressed):
                    04:2e:e1:8d:69:76:5b:4d:fa
                Order:  3341924407 (0xc731b837)
                Cofactor:  1 (0x1)
        X509v3 extensions:
            X509v3 Subject Key Identifier:
                75:D5:96:58:C0:B8:EC:AF:0F:67:09:ED:2A:B0:65:15:53:B4:84:52
            X509v3 Authority Key Identifier:
                keyid:75:D5:96:58:C0:B8:EC:AF:0F:67:09:ED:2A:B0:65:15:53:B4:84:52

            X509v3 Basic Constraints: critical
                CA:TRUE
    Signature Algorithm: ecdsa-with-SHA256
         30:20:02:0e:2e:15:a2:45:be:23:f6:75:74:f0:88:c4:22:27:
         02:0e:24:52:fd:94:fe:87:61:ee:94:37:eb:8f:ef:12
-----BEGIN CERTIFICATE-----
MIIBjjCCAVmgAwIBAgIUAWNPnywzMe6RX/WLU/qLrvdRsjkwCgYIKoZIzj0EAwIw
MjEwMC4GA1UEAwwnRUNDIGV4cGxpY2l0IGFub21hbG91cyBjdXJ2ZSBjb2ZhY3Rv
ciAxMCAXDTE5MTIyOTE0Mzc1NloYDzIxMTkxMjA1MTQzNzU2WjAyMTAwLgYDVQQD
DCdFQ0MgZXhwbGljaXQgYW5vbWFsb3VzIGN1cnZlIGNvZmFjdG9yIDEwUTBDBgcq
hkjOPQIBMDgCAQEwEAYHKoZIzj0BAQIFAMcxuDcwDAQEZfCzzAQEfmB1OAQJBC7h
jWl2W036AgUAxzG4NwIBAQMKAAQAABEiFJOlaKNTMFEwHQYDVR0OBBYEFHXVlljA
uOyvD2cJ7SqwZRVTtIRSMB8GA1UdIwQYMBaAFHXVlljAuOyvD2cJ7SqwZRVTtIRS
MA8GA1UdEwEB/wQFMAMBAf8wCgYIKoZIzj0EAwIDIwAwIAIOLhWiRb4j9nV08IjE
IicCDiRS/ZT+h2HulDfrj+8S
-----END CERTIFICATE-----
