Certificate:
    Data:
        Version: 3 (0x2)
        Serial Number:
            3c:60:ec:61:cf:96:25:63:d8:79:27:ec:90:0c:e8:49:29:ec:a8:96
        Signature Algorithm: md5WithRSAEncryption
        Issuer: CN = RSA with unexpected type
        Validity
            Not Before: Dec 24 08:34:54 2019 GMT
            Not After : Jan 23 08:34:54 2020 GMT
        Subject: CN = RSA with unexpected type
        Subject Public Key Info:
            Public Key Algorithm: rsaEncryption
            Unable to load Public Key
140249817855168:error:0D0680A8:asn1 encoding routines:asn1_check_tlen:wrong tag:crypto/asn1/tasn_dec.c:1130:
140249817855168:error:0D06C03A:asn1 encoding routines:asn1_d2i_ex_primitive:nested asn1 error:crypto/asn1/tasn_dec.c:694:
140249817855168:error:0D08303A:asn1 encoding routines:asn1_template_noexp_d2i:nested asn1 error:crypto/asn1/tasn_dec.c:627:Field=n, Type=RSAPublicKey
140249817855168:error:0408B004:rsa routines:rsa_pub_decode:RSA lib:crypto/rsa/rsa_ameth.c:105:
140249817855168:error:0B09407D:x509 certificate routines:x509_pubkey_decode:public key decode error:crypto/x509/x_pubkey.c:125:
        X509v3 extensions:
            X509v3 Subject Key Identifier:
                2C:7A:27:F0:FB:A8:C5:76:40:FA:14:19:C4:D1:E3:8F:1F:9E:4A:B4
            X509v3 Authority Key Identifier:
                keyid:2C:7A:27:F0:FB:A8:C5:76:40:FA:14:19:C4:D1:E3:8F:1F:9E:4A:B4

            X509v3 Basic Constraints: critical
                CA:TRUE
    Signature Algorithm: md5WithRSAEncryption
         2b:f1:0f:cc:ba:03:74:f0:20:f4:16:09:59:31:55:57:33:a6:
         4c:bb:ba:b1:46:f5:fa:91:76:91:a0:7d:06:c9:c3:03:67:2a:
         0a:02:bf:5d:51:f3:5d:b6:ee:2f:b4:cd:1e:54:d0:a7:6b:75:
         e1:97:e6:d3:81:fd:d4:e9:e5:a4
-----BEGIN CERTIFICATE-----
MIIBuzCCAWWgAwIBAgIUPGDsYc+WJWPYeSfskAzoSSnsqJYwDQYJKoZIhvcNAQEE
BQAwIzEhMB8GA1UEAwwYUlNBIHdpdGggdW5leHBlY3RlZCB0eXBlMB4XDTE5MTIy
NDA4MzQ1NFoXDTIwMDEyMzA4MzQ1NFowIzEhMB8GA1UEAwwYUlNBIHdpdGggdW5l
eHBlY3RlZCB0eXBlMHowDQYJKoZIhvcNAQEBBQADaQAwZgwcd2hhdCBraW5kYSB0
eXBlIGlzIHRoYXQgdzAwdAJBALdziZd1PO6y4/XV2I021YcJcpfiCBvV74xBvCxg
P+kzZIfc7Sa/hCGiEV60PrPp59tokW/46sytAyIPo7TiLksCAwEAAaNTMFEwHQYD
VR0OBBYEFCx6J/D7qMV2QPoUGcTR448fnkq0MB8GA1UdIwQYMBaAFCx6J/D7qMV2
QPoUGcTR448fnkq0MA8GA1UdEwEB/wQFMAMBAf8wDQYJKoZIhvcNAQEEBQADQQAr
8Q/MugN08CD0FglZMVVXM6ZMu7qxRvX6kXaRoH0GycMDZyoKAr9dUfNdtu4vtM0e
VNCna3Xhl+bTgf3U6eWk
-----END CERTIFICATE-----
