Certificate:
    Data:
        Version: 3 (0x2)
        Serial Number: 1 (0x1)
        Signature Algorithm: ecdsa-with-SHA256
        Issuer: CN = Root CA
        Validity
            Not Before: Jan  1 00:00:00 2018 GMT
            Not After : Jan  1 00:00:00 2035 GMT
        Subject: CN = Subject CA
        Subject Public Key Info:
            Public Key Algorithm: rsaEncryption
                RSA Public-Key: (2049 bit)
                Modulus:
                    01:00:00:00:00:00:00:00:00:00:00:00:00:00:00:
                    00:00:00:00:00:00:00:00:00:00:00:00:00:00:00:
                    00:00:00:00:00:00:00:00:00:00:00:00:00:00:00:
                    00:00:00:00:00:00:00:00:00:00:00:00:00:00:00:
                    00:00:00:00:00:00:00:00:00:00:00:00:00:00:00:
                    00:00:00:00:00:00:00:00:00:00:00:00:00:00:00:
                    00:00:00:00:00:00:00:00:00:00:00:00:00:00:00:
                    00:00:00:00:00:00:00:00:00:00:00:00:00:00:00:
                    00:00:00:00:00:00:00:06:bc:00:00:00:00:00:00:
                    00:00:00:00:00:00:00:00:00:00:00:00:00:00:00:
                    00:00:00:00:00:00:00:00:00:00:00:00:00:00:00:
                    00:00:00:00:00:00:00:00:00:00:00:00:00:00:00:
                    00:00:00:00:00:00:00:00:00:00:00:00:00:00:00:
                    00:00:00:00:00:00:00:00:00:00:00:00:00:00:00:
                    00:00:00:00:00:00:00:00:00:00:00:00:00:00:00:
                    00:00:00:00:00:00:00:00:00:00:00:00:00:00:00:
                    00:00:00:00:00:00:00:00:00:00:00:00:00:00:0a:
                    9b:2b
                Exponent: 65537 (0x10001)
        X509v3 extensions:
            X509v3 Authority Key Identifier: 
                keyid:23:46:1F:CC:CB:56:9B:4F:6C:B4:1C:F4:6A:E4:AF:E3:2B:BF:94:69

            X509v3 Basic Constraints: critical
                CA:FALSE
            X509v3 Extended Key Usage: 
                TLS Web Client Authentication
            X509v3 Key Usage: critical
                Digital Signature, Key Encipherment, Key Agreement
            Netscape Cert Type: 
                SSL Client
            X509v3 Subject Key Identifier: 
                75:21:9B:DE:55:02:74:5E:EB:80:24:22:DB:81:CA:00:9E:1E:96:28
    Signature Algorithm: ecdsa-with-SHA256
         30:66:02:31:00:e2:d1:2d:6a:12:e3:c5:f7:81:92:0c:73:2d:
         3d:72:7e:d4:a2:f2:7e:b5:e3:5c:e6:93:c5:72:48:9d:81:be:
         e0:df:e8:d4:c7:3f:73:f1:e6:17:31:00:73:e9:2e:89:d1:02:
         31:00:e1:3b:76:ab:b2:94:14:3f:b8:ce:fe:1b:4a:d3:c5:a7:
         49:78:48:d9:20:fa:d1:f3:e9:45:27:f2:c9:a0:cc:fe:75:3a:
         11:da:9f:a4:2e:f9:a1:cf:55:09:c2:69:3d:78
-----BEGIN CERTIFICATE-----
MIICjDCCAhGgAwIBAgIBATAKBggqhkjOPQQDAjASMRAwDgYDVQQDDAdSb290IENB
MB4XDTE4MDEwMTAwMDAwMFoXDTM1MDEwMTAwMDAwMFowFTETMBEGA1UEAwwKU3Vi
amVjdCBDQTCCASIwDQYJKoZIhvcNAQEBBQADggEPADCCAQoCggEBAQAAAAAAAAAA
AAAAAAAAAAAAAAAAAAAAAAAAAAAAAAAAAAAAAAAAAAAAAAAAAAAAAAAAAAAAAAAA
AAAAAAAAAAAAAAAAAAAAAAAAAAAAAAAAAAAAAAAAAAAAAAAAAAAAAAAAAAAAAAAA
AAAAAAAAAAAAAAAAAAAAAAAAAAAAAAa8AAAAAAAAAAAAAAAAAAAAAAAAAAAAAAAA
AAAAAAAAAAAAAAAAAAAAAAAAAAAAAAAAAAAAAAAAAAAAAAAAAAAAAAAAAAAAAAAA
AAAAAAAAAAAAAAAAAAAAAAAAAAAAAAAAAAAAAAAAAAAAAAAAAAAAAAAAAAAAAAAA
AAAAAAAKmysCAwEAAaOBiTCBhjAfBgNVHSMEGDAWgBQjRh/My1abT2y0HPRq5K/j
K7+UaTAMBgNVHRMBAf8EAjAAMBMGA1UdJQQMMAoGCCsGAQUFBwMCMA4GA1UdDwEB
/wQEAwIDqDARBglghkgBhvhCAQEEBAMCB4AwHQYDVR0OBBYEFHUhm95VAnRe64Ak
ItuBygCeHpYoMAoGCCqGSM49BAMCA2kAMGYCMQDi0S1qEuPF94GSDHMtPXJ+1KLy
frXjXOaTxXJInYG+4N/o1Mc/c/HmFzEAc+kuidECMQDhO3arspQUP7jO/htK08Wn
SXhI2SD60fPpRSfyyaDM/nU6EdqfpC75oc9VCcJpPXg=
-----END CERTIFICATE-----
