Certificate:
    Data:
        Version: 3 (0x2)
        Serial Number:
            3c:60:ec:61:cf:96:25:63:d8:79:27:ec:90:0c:e8:49:29:ec:a8:96
        Signature Algorithm: md5WithRSAEncryption
        Issuer: CN = RSA with undecodable public key
        Validity
            Not Before: Dec 24 08:34:54 2019 GMT
            Not After : Jan 23 08:34:54 2020 GMT
        Subject: CN = RSA with undecodable public key
        Subject Public Key Info:
            Public Key Algorithm: rsaEncryption
            Unable to load Public Key
140376604693696:error:0D07207B:asn1 encoding routines:ASN1_get_object:header too long:crypto/asn1/asn1_lib.c:101:
140376604693696:error:0D068066:asn1 encoding routines:asn1_check_tlen:bad object header:crypto/asn1/tasn_dec.c:1118:
140376604693696:error:0D07803A:asn1 encoding routines:asn1_item_embed_d2i:nested asn1 error:crypto/asn1/tasn_dec.c:290:Type=RSAPublicKey
140376604693696:error:0408B004:rsa routines:rsa_pub_decode:RSA lib:crypto/rsa/rsa_ameth.c:105:
140376604693696:error:0B09407D:x509 certificate routines:x509_pubkey_decode:public key decode error:crypto/x509/x_pubkey.c:125:
        X509v3 extensions:
            X509v3 Subject Key Identifier:
                2C:7A:27:F0:FB:A8:C5:76:40:FA:14:19:C4:D1:E3:8F:1F:9E:4A:B4
            X509v3 Authority Key Identifier:
                keyid:2C:7A:27:F0:FB:A8:C5:76:40:FA:14:19:C4:D1:E3:8F:1F:9E:4A:B4

            X509v3 Basic Constraints: critical
                CA:TRUE
    Signature Algorithm: md5WithRSAEncryption
         2b:f1:0f:cc:ba:03:74:f0:20:f4:16:09:59:31:55:57:33:a6:
         4c:bb:ba:b1:46:f5:fa:91:76:91:a0:7d:06:c9:c3:03:67:2a:
         0a:02:bf:5d:51:f3:5d:b6:ee:2f:b4:cd:1e:54:d0:a7:6b:75:
         e1:97:e6:d3:81:fd:d4:e9:e5:a4
-----BEGIN CERTIFICATE-----
MIIBZDCCAQ6gAwIBAgIUPGDsYc+WJWPYeSfskAzoSSnsqJYwDQYJKoZIhvcNAQEE
BQAwKjEoMCYGA1UEAwwfUlNBIHdpdGggdW5kZWNvZGFibGUgcHVibGljIGtleTAe
Fw0xOTEyMjQwODM0NTRaFw0yMDAxMjMwODM0NTRaMCoxKDAmBgNVBAMMH1JTQSB3
aXRoIHVuZGVjb2RhYmxlIHB1YmxpYyBrZXkwFTANBgkqhkiG9w0BAQEFAAMEAKvN
76NTMFEwHQYDVR0OBBYEFCx6J/D7qMV2QPoUGcTR448fnkq0MB8GA1UdIwQYMBaA
FCx6J/D7qMV2QPoUGcTR448fnkq0MA8GA1UdEwEB/wQFMAMBAf8wDQYJKoZIhvcN
AQEEBQADQQAr8Q/MugN08CD0FglZMVVXM6ZMu7qxRvX6kXaRoH0GycMDZyoKAr9d
UfNdtu4vtM0eVNCna3Xhl+bTgf3U6eWk
-----END CERTIFICATE-----
