Certificate:
    Data:
        Version: 3 (0x2)
        Serial Number:
            41:b8:69:31:18:ef:a1:99:0e:80:e3:71:c0:7a:3a:13:b6:c3:07:a9
        Signature Algorithm: sha256WithRSAEncryption
        Issuer: CN = RSA with prime modulus
        Validity
            Not Before: Dec 22 22:17:57 2019 GMT
            Not After : Jan 21 22:17:57 2020 GMT
        Subject: CN = RSA with prime modulus
        Subject Public Key Info:
            Public Key Algorithm: rsaEncryption
                RSA Public-Key: (128 bit)
                Modulus:
                    00:fd:27:a2:1e:e6:0f:4b:91:f1:eb:54:e5:31:e1:
                    2d:c3
                Exponent: 65537 (0x10001)
        X509v3 extensions:
            X509v3 Subject Key Identifier:
                49:9E:17:29:76:06:44:B1:CA:51:48:DC:12:C0:3F:CA:F6:77:A2:76
            X509v3 Authority Key Identifier:
                keyid:49:9E:17:29:76:06:44:B1:CA:51:48:DC:12:C0:3F:CA:F6:77:A2:76

            X509v3 Basic Constraints: critical
                CA:TRUE
    Signature Algorithm: sha256WithRSAEncryption
         68:94:e7:4f:02:72:31:dd:4f:2f:85:71:16:15:85:56:17:51:
         f8:bd:61:78:84:8a:4b:ce:7d:24:75:ef:b6:d0:03:21:74:90:
         e5:a1:d9:25:93:f1:e8:3d:5f:c5:52:65:78:73:60:38:f2:e2:
         39:12:46:9c:e9:9e:b5:ab:10:ae
-----BEGIN CERTIFICATE-----
MIIBaTCCAROgAwIBAgIUQbhpMRjvoZkOgONxwHo6E7bDB6kwDQYJKoZIhvcNAQEL
BQAwITEfMB0GA1UEAwwWUlNBIHdpdGggcHJpbWUgbW9kdWx1czAeFw0xOTEyMjIy
MjE3NTdaFw0yMDAxMjEyMjE3NTdaMCExHzAdBgNVBAMMFlJTQSB3aXRoIHByaW1l
IG1vZHVsdXMwLDANBgkqhkiG9w0BAQEFAAMbADAYAhEA/SeiHuYPS5Hx61TlMeEt
wwIDAQABo1MwUTAdBgNVHQ4EFgQUSZ4XKXYGRLHKUUjcEsA/yvZ3onYwHwYDVR0j
BBgwFoAUSZ4XKXYGRLHKUUjcEsA/yvZ3onYwDwYDVR0TAQH/BAUwAwEB/zANBgkq
hkiG9w0BAQsFAANBAGiU508CcjHdTy+FcRYVhVYXUfi9YXiEikvOfSR177bQAyF0
kOWh2SWT8eg9X8VSZXhzYDjy4jkSRpzpnrWrEK4=
-----END CERTIFICATE-----
