Certificate:
    Data:
        Version: 3 (0x2)
        Serial Number:
            3c:60:ec:61:cf:96:25:63:d8:79:27:ec:90:0c:e8:49:29:ec:a8:96
        Signature Algorithm: md5WithRSAEncryption
        Issuer: CN = RSA with trailing data
        Validity
            Not Before: Dec 24 08:34:54 2019 GMT
            Not After : Jan 23 08:34:54 2020 GMT
        Subject: CN = RSA with trailing data
        Subject Public Key Info:
            Public Key Algorithm: rsaEncryption
                RSA Public-Key: (512 bit)
                Modulus:
                    00:b7:73:89:97:75:3c:ee:b2:e3:f5:d5:d8:8d:36:
                    d5:87:09:72:97:e2:08:1b:d5:ef:8c:41:bc:2c:60:
                    3f:e9:33:64:87:dc:ed:26:bf:84:21:a2:11:5e:b4:
                    3e:b3:e9:e7:db:68:91:6f:f8:ea:cc:ad:03:22:0f:
                    a3:b4:e2:2e:4b
                Exponent: 65537 (0x10001)
        X509v3 extensions:
            X509v3 Subject Key Identifier:
                2C:7A:27:F0:FB:A8:C5:76:40:FA:14:19:C4:D1:E3:8F:1F:9E:4A:B4
            X509v3 Authority Key Identifier:
                keyid:2C:7A:27:F0:FB:A8:C5:76:40:FA:14:19:C4:D1:E3:8F:1F:9E:4A:B4

            X509v3 Basic Constraints: critical
                CA:TRUE
    Signature Algorithm: md5WithRSAEncryption
         2b:f1:0f:cc:ba:03:74:f0:20:f4:16:09:59:31:55:57:33:a6:
         4c:bb:ba:b1:46:f5:fa:91:76:91:a0:7d:06:c9:c3:03:67:2a:
         0a:02:bf:5d:51:f3:5d:b6:ee:2f:b4:cd:1e:54:d0:a7:6b:75:
         e1:97:e6:d3:81:fd:d4:e9:e5:a4
-----BEGIN CERTIFICATE-----
MIIBnTCCAUegAwIBAgIUPGDsYc+WJWPYeSfskAzoSSnsqJYwDQYJKoZIhvcNAQEE
BQAwITEfMB0GA1UEAwwWUlNBIHdpdGggdHJhaWxpbmcgZGF0YTAeFw0xOTEyMjQw
ODM0NTRaFw0yMDAxMjMwODM0NTRaMCExHzAdBgNVBAMMFlJTQSB3aXRoIHRyYWls
aW5nIGRhdGEwYDANBgkqhkiG9w0BAQEFAANPADBIAkEAt3OJl3U87rLj9dXYjTbV
hwlyl+IIG9XvjEG8LGA/6TNkh9ztJr+EIaIRXrQ+s+nn22iRb/jqzK0DIg+jtOIu
SwIDAQABqrvM3aNTMFEwHQYDVR0OBBYEFCx6J/D7qMV2QPoUGcTR448fnkq0MB8G
A1UdIwQYMBaAFCx6J/D7qMV2QPoUGcTR448fnkq0MA8GA1UdEwEB/wQFMAMBAf8w
DQYJKoZIhvcNAQEEBQADQQAr8Q/MugN08CD0FglZMVVXM6ZMu7qxRvX6kXaRoH0G
ycMDZyoKAr9dUfNdtu4vtM0eVNCna3Xhl+bTgf3U6eWk
-----END CERTIFICATE-----
