Certificate:
    Data:
        Version: 3 (0x2)
        Serial Number:
            41:b8:69:31:18:ef:a1:99:0e:80:e3:71:c0:7a:3a:13:b6:c3:07:a9
        Signature Algorithm: sha256WithRSAEncryption
        Issuer: CN = RSA with long exponent in public key
        Validity
            Not Before: Dec 22 22:17:57 2019 GMT
            Not After : Jan 21 22:17:57 2020 GMT
        Subject: CN = Base RSA
        Subject Public Key Info:
            Public Key Algorithm: rsaEncryption
                RSA Public-Key: (512 bit)
                Modulus:
                    00:bc:65:4a:9d:de:79:72:4f:cd:2e:c6:57:20:e6:
                    34:3e:62:7c:65:03:48:10:b8:93:17:94:79:a7:9f:
                    f0:32:37:7f:79:e8:e2:9a:bc:30:d0:19:c9:0b:bd:
                    f5:73:e1:a4:28:e2:70:2e:9b:a1:1f:b6:05:b6:6d:
                    01:7f:f3:c5:a5
                Exponent:
                    00:ab:cd:11:22:33:44:55:66:77:88:99:ab:cd:11:
                    22:33:44:55:66:77:88:99:ab:cd:11:22:33:44:55:
                    66:77:88:99:ab:cd:11:22:33:44:55:66:77:88:99:
                    ab:cd:11:22:33:44:55:66:77:88:99
        X509v3 extensions:
            X509v3 Subject Key Identifier: 
                49:9E:17:29:76:06:44:B1:CA:51:48:DC:12:C0:3F:CA:F6:77:A2:76
            X509v3 Authority Key Identifier: 
                keyid:49:9E:17:29:76:06:44:B1:CA:51:48:DC:12:C0:3F:CA:F6:77:A2:76

            X509v3 Basic Constraints: critical
                CA:TRUE
    Signature Algorithm: sha256WithRSAEncryption
         68:94:e7:4f:02:72:31:dd:4f:2f:85:71:16:15:85:56:17:51:
         f8:bd:61:78:84:8a:4b:ce:7d:24:75:ef:b6:d0:03:21:74:90:
         e5:a1:d9:25:93:f1:e8:3d:5f:c5:52:65:78:73:60:38:f2:e2:
         39:12:46:9c:e9:9e:b5:ab:10:ae
-----BEGIN CERTIFICATE-----
MIIB0DCCAXqgAwIBAgIUQbhpMRjvoZkOgONxwHo6E7bDB6kwDQYJKoZIhvcNAQEL
BQAwLzEtMCsGA1UEAwwkUlNBIHdpdGggbG9uZyBleHBvbmVudCBpbiBwdWJsaWMg
a2V5MB4XDTE5MTIyMjIyMTc1N1oXDTIwMDEyMTIyMTc1N1owEzERMA8GA1UEAwwI
QmFzZSBSU0EwgZIwDQYJKoZIhvcNAQEBBQADgYAAMH0CQQC8ZUqd3nlyT80uxlcg
5jQ+YnxlA0gQuJMXlHmnn/AyN3956OKavDDQGckLvfVz4aQo4nAum6EftgW2bQF/
88WlAjgAq80RIjNEVWZ3iJmrzREiM0RVZneImavNESIzRFVmd4iZq80RIjNEVWZ3
iJmrzREiM0RVZneImaNTMFEwHQYDVR0OBBYEFEmeFyl2BkSxylFI3BLAP8r2d6J2
MB8GA1UdIwQYMBaAFEmeFyl2BkSxylFI3BLAP8r2d6J2MA8GA1UdEwEB/wQFMAMB
Af8wDQYJKoZIhvcNAQELBQADQQBolOdPAnIx3U8vhXEWFYVWF1H4vWF4hIpLzn0k
de+20AMhdJDlodklk/HoPV/FUmV4c2A48uI5Ekac6Z61qxCu
-----END CERTIFICATE-----
