Certificate:
    Data:
        Version: 3 (0x2)
        Serial Number: 1 (0x1)
        Signature Algorithm: ecdsa-with-SHA256
        Issuer: CN = RSA certificate with modulus bit bias
        Validity
            Not Before: Jan  1 00:00:00 2018 GMT
            Not After : Jan  1 00:00:00 2035 GMT
        Subject: CN = RSA certificate with modulus bit bias
        Subject Public Key Info:
            Public Key Algorithm: rsaEncryption
                RSA Public-Key: (2049 bit)
                Modulus:
                    01:00:00:00:00:00:00:00:00:00:00:00:00:00:00:
                    00:00:00:00:00:00:00:00:00:00:00:00:00:00:00:
                    00:00:00:00:00:00:00:00:00:00:00:00:00:00:00:
                    00:00:00:00:00:00:00:00:00:00:00:00:00:00:00:
                    00:00:00:00:00:00:00:00:00:00:00:00:00:00:00:
                    00:00:00:00:00:00:00:00:00:00:00:00:00:00:00:
                    00:00:00:00:00:00:00:00:00:00:00:00:00:00:00:
                    00:00:00:00:00:00:00:00:00:00:00:00:00:00:00:
                    00:00:00:00:00:00:00:06:bc:00:00:00:00:00:00:
                    00:00:00:00:00:00:00:00:00:00:00:00:00:00:00:
                    00:00:00:00:00:00:00:00:00:00:00:00:00:00:00:
                    00:00:00:00:00:00:00:00:00:00:00:00:00:00:00:
                    00:00:00:00:00:00:00:00:00:00:00:00:00:00:00:
                    00:00:00:00:00:00:00:00:00:00:00:00:00:00:00:
                    00:00:00:00:00:00:00:00:00:00:00:00:00:00:00:
                    00:00:00:00:00:00:00:00:00:00:00:00:00:00:00:
                    00:00:00:00:00:00:00:00:00:00:00:00:00:00:0a:
                    9b:2b
                Exponent: 65537 (0x10001)
        X509v3 extensions:
            X509v3 Authority Key Identifier: 
                keyid:23:46:1F:CC:CB:56:9B:4F:6C:B4:1C:F4:6A:E4:AF:E3:2B:BF:94:69

            X509v3 Basic Constraints: critical
                CA:FALSE
            X509v3 Extended Key Usage: 
                TLS Web Client Authentication
            X509v3 Key Usage: critical
                Digital Signature, Key Encipherment, Key Agreement
            Netscape Cert Type: 
                SSL Client
            X509v3 Subject Key Identifier: 
                75:21:9B:DE:55:02:74:5E:EB:80:24:22:DB:81:CA:00:9E:1E:96:28
    Signature Algorithm: ecdsa-with-SHA256
         30:66:02:31:00:e2:d1:2d:6a:12:e3:c5:f7:81:92:0c:73:2d:
         3d:72:7e:d4:a2:f2:7e:b5:e3:5c:e6:93:c5:72:48:9d:81:be:
         e0:df:e8:d4:c7:3f:73:f1:e6:17:31:00:73:e9:2e:89:d1:02:
         31:00:e1:3b:76:ab:b2:94:14:3f:b8:ce:fe:1b:4a:d3:c5:a7:
         49:78:48:d9:20:fa:d1:f3:e9:45:27:f2:c9:a0:cc:fe:75:3a:
         11:da:9f:a4:2e:f9:a1:cf:55:09:c2:69:3d:78
-----BEGIN CERTIFICATE-----
MIICxTCCAkqgAwIBAgIBATAKBggqhkjOPQQDAjAwMS4wLAYDVQQDDCVSU0EgY2Vy
dGlmaWNhdGUgd2l0aCBtb2R1bHVzIGJpdCBiaWFzMB4XDTE4MDEwMTAwMDAwMFoX
DTM1MDEwMTAwMDAwMFowMDEuMCwGA1UEAwwlUlNBIGNlcnRpZmljYXRlIHdpdGgg
bW9kdWx1cyBiaXQgYmlhczCCASIwDQYJKoZIhvcNAQEBBQADggEPADCCAQoCggEB
AQAAAAAAAAAAAAAAAAAAAAAAAAAAAAAAAAAAAAAAAAAAAAAAAAAAAAAAAAAAAAAA
AAAAAAAAAAAAAAAAAAAAAAAAAAAAAAAAAAAAAAAAAAAAAAAAAAAAAAAAAAAAAAAA
AAAAAAAAAAAAAAAAAAAAAAAAAAAAAAAAAAAAAAAAAAa8AAAAAAAAAAAAAAAAAAAA
AAAAAAAAAAAAAAAAAAAAAAAAAAAAAAAAAAAAAAAAAAAAAAAAAAAAAAAAAAAAAAAA
AAAAAAAAAAAAAAAAAAAAAAAAAAAAAAAAAAAAAAAAAAAAAAAAAAAAAAAAAAAAAAAA
AAAAAAAAAAAAAAAAAAAKmysCAwEAAaOBiTCBhjAfBgNVHSMEGDAWgBQjRh/My1ab
T2y0HPRq5K/jK7+UaTAMBgNVHRMBAf8EAjAAMBMGA1UdJQQMMAoGCCsGAQUFBwMC
MA4GA1UdDwEB/wQEAwIDqDARBglghkgBhvhCAQEEBAMCB4AwHQYDVR0OBBYEFHUh
m95VAnRe64AkItuBygCeHpYoMAoGCCqGSM49BAMCA2kAMGYCMQDi0S1qEuPF94GS
DHMtPXJ+1KLyfrXjXOaTxXJInYG+4N/o1Mc/c/HmFzEAc+kuidECMQDhO3arspQU
P7jO/htK08WnSXhI2SD60fPpRSfyyaDM/nU6EdqfpC75oc9VCcJpPXg=
-----END CERTIFICATE-----
