Certificate:
    Data:
        Version: 3 (0x2)
        Serial Number:
            41:b8:69:31:18:ef:a1:99:0e:80:e3:71:c0:7a:3a:13:b6:c3:07:a9
        Signature Algorithm: sha256WithRSAEncryption
        Issuer: CN = Base RSA
        Validity
            Not Before: Dec 22 22:17:57 2019 GMT
            Not After : Jan 21 22:17:57 2020 GMT
        Subject: CN = Base RSA
        Subject Public Key Info:
            Public Key Algorithm: rsaEncryption
                RSA Public-Key: (576 bit)
                Modulus:
                    00:c2:cb:b2:4f:db:f9:23:b6:12:68:e3:f1:1a:38:
                    96:de:45:74:b3:ba:58:73:0c:bd:65:29:38:86:4e:
                    22:23:ee:eb:70:4a:17:cf:d0:8d:16:b4:68:91:a6:
                    14:74:75:99:39:c6:e4:9a:af:e7:f2:59:55:48:c7:
                    4c:1d:7f:b8:d2:4c:d1:5c:b2:3b:4c:d0:a3
                Exponent: 65537 (0x10001)
        X509v3 extensions:
            X509v3 Subject Key Identifier: 
                49:9E:17:29:76:06:44:B1:CA:51:48:DC:12:C0:3F:CA:F6:77:A2:76
            X509v3 Authority Key Identifier: 
                keyid:49:9E:17:29:76:06:44:B1:CA:51:48:DC:12:C0:3F:CA:F6:77:A2:76

            X509v3 Basic Constraints: critical
                CA:TRUE
    Signature Algorithm: sha256WithRSAEncryption
         68:94:e7:4f:02:72:31:dd:4f:2f:85:71:16:15:85:56:17:51:
         f8:bd:61:78:84:8a:4b:ce:7d:24:75:ef:b6:d0:03:21:74:90:
         e5:a1:d9:25:93:f1:e8:3d:5f:c5:52:65:78:73:60:38:f2:e2:
         39:12:46:9c:e9:9e:b5:ab:10:ae
-----BEGIN CERTIFICATE-----
MIIBhTCCAS+gAwIBAgIUQbhpMRjvoZkOgONxwHo6E7bDB6kwDQYJKoZIhvcNAQEL
BQAwEzERMA8GA1UEAwwIQmFzZSBSU0EwHhcNMTkxMjIyMjIxNzU3WhcNMjAwMTIx
MjIxNzU3WjATMREwDwYDVQQDDAhCYXNlIFJTQTBkMA0GCSqGSIb3DQEBAQUAA1MA
MFACSQDCy7JP2/kjthJo4/EaOJbeRXSzulhzDL1lKTiGTiIj7utwShfP0I0WtGiR
phR0dZk5xuSar+fyWVVIx0wdf7jSTNFcsjtM0KMCAwEAAaNTMFEwHQYDVR0OBBYE
FEmeFyl2BkSxylFI3BLAP8r2d6J2MB8GA1UdIwQYMBaAFEmeFyl2BkSxylFI3BLA
P8r2d6J2MA8GA1UdEwEB/wQFMAMBAf8wDQYJKoZIhvcNAQELBQADQQBolOdPAnIx
3U8vhXEWFYVWF1H4vWF4hIpLzn0kde+20AMhdJDlodklk/HoPV/FUmV4c2A48uI5
Ekac6Z61qxCu
-----END CERTIFICATE-----
