Certificate:
    Data:
        Version: 3 (0x2)
        Serial Number: 14065 (0x36f1)
        Signature Algorithm: rsassaPss         (INVALID PSS PARAMETERS)
        Issuer: CN = RSA-PSS header/signature mismatch
        Validity
            Not Before: Aug 22 19:10:17 2018 GMT
            Not After : Sep 21 19:10:17 2018 GMT
        Subject: CN = RSA-PSS header/signature mismatch
        Subject Public Key Info:
            Public Key Algorithm: rsaEncryption
                RSA Public-Key: (272 bit)
                Modulus:
                    00:ac:05:34:f3:20:aa:ce:db:2f:65:1b:5a:c9:63:
                    d1:bd:5c:78:b8:bc:cf:69:56:f3:75:ac:43:80:0a:
                    e2:0b:0e:df:95
                Exponent: 65537 (0x10001)
        X509v3 extensions:
            X509v3 Basic Constraints:
                CA:TRUE
    Signature Algorithm: rsassaPss
         Hash Algorithm: sha256
         Mask Algorithm: mgf1 with sha256
          Salt Length: 0x20
         Trailer Field: 0xBC (default)

         55:16:2e:ce
-----BEGIN CERTIFICATE-----
MIIBWjCCARCgAwIBAgICNvEwNwYJKoZIhvcNAQEKMCqgDTALBglghkgBZQMEAgGh
FDASBgMqAwQwCwYJYIZIAWUDBAIBogMCASAwLDEqMCgGA1UEAwwhUlNBLVBTUyBo
ZWFkZXIvc2lnbmF0dXJlIG1pc21hdGNoMB4XDTE4MDgyMjE5MTAxN1oXDTE4MDky
MTE5MTAxN1owLDEqMCgGA1UEAwwhUlNBLVBTUyBoZWFkZXIvc2lnbmF0dXJlIG1p
c21hdGNoMD4wDQYJKoZIhvcNAQEBBQADLQAwKgIjAKwFNPMgqs7bL2UbWslj0b1c
eLi8z2lW83WsQ4AK4gsO35UCAwEAAaMQMA4wDAYDVR0TBAUwAwEB/zA9BgkqhkiG
9w0BAQowMKANMAsGCWCGSAFlAwQCAaEaMBgGCSqGSIb3DQEBCDALBglghkgBZQME
AgGiAwIBIAMFAFUWLs4=
-----END CERTIFICATE-----
