Certificate:
    Data:
        Version: 3 (0x2)
        Serial Number: 14065 (0x36f1)
        Signature Algorithm: rsassaPss
         Hash Algorithm: sha256
         Mask Algorithm: mgf1 with sha256
          Salt Length: 0x14 (default)
         Trailer Field: 0x-01
        Issuer: CN = RSA-PSS malformed: trailer field byte -1
        Validity
            Not Before: Aug 22 19:10:17 2018 GMT
            Not After : Sep 21 19:10:17 2018 GMT
        Subject: CN = RSA-PSS malformed: trailer field byte -1
        Subject Public Key Info:
            Public Key Algorithm: rsaEncryption
                RSA Public-Key: (272 bit)
                Modulus:
                    00:ac:05:34:f3:20:aa:ce:db:2f:65:1b:5a:c9:63:
                    d1:bd:5c:78:b8:bc:cf:69:56:f3:75:ac:43:80:0a:
                    e2:0b:0e:df:95
                Exponent: 65537 (0x10001)
        X509v3 extensions:
            X509v3 Basic Constraints:
                CA:TRUE
    Signature Algorithm: rsassaPss
         Hash Algorithm: sha256
         Mask Algorithm: mgf1 with sha256
          Salt Length: 0x14 (default)
         Trailer Field: 0x-01

         55:16:2e:ce
-----BEGIN CERTIFICATE-----
MIIBbjCCASSgAwIBAgICNvEwPQYJKoZIhvcNAQEKMDCgDTALBglghkgBZQMEAgGh
GjAYBgkqhkiG9w0BAQgwCwYJYIZIAWUDBAIBowMCAf8wMzExMC8GA1UEAwwoUlNB
LVBTUyBtYWxmb3JtZWQ6IHRyYWlsZXIgZmllbGQgYnl0ZSAtMTAeFw0xODA4MjIx
OTEwMTdaFw0xODA5MjExOTEwMTdaMDMxMTAvBgNVBAMMKFJTQS1QU1MgbWFsZm9y
bWVkOiB0cmFpbGVyIGZpZWxkIGJ5dGUgLTEwPjANBgkqhkiG9w0BAQEFAAMtADAq
AiMArAU08yCqztsvZRtayWPRvVx4uLzPaVbzdaxDgAriCw7flQIDAQABoxAwDjAM
BgNVHRMEBTADAQH/MD0GCSqGSIb3DQEBCjAwoA0wCwYJYIZIAWUDBAIBoRowGAYJ
KoZIhvcNAQEIMAsGCWCGSAFlAwQCAaMDAgH/AwUAVRYuzg==
-----END CERTIFICATE-----
