Certificate:
    Data:
        Version: 3 (0x2)
        Serial Number: 14065 (0x36f1)
        Signature Algorithm: rsassaPss
         Hash Algorithm: sha256
         Mask Algorithm: mgf1 with sha384
          Salt Length: 0x10
         Trailer Field: 0xBC (default)
        Issuer: CN = RSA-PSS: multiple hash functions used
        Validity
            Not Before: Aug 22 19:10:17 2018 GMT
            Not After : Sep 21 19:10:17 2018 GMT
        Subject: CN = RSA-PSS: multiple hash functions used
        Subject Public Key Info:
            Public Key Algorithm: rsaEncryption
                RSA Public-Key: (272 bit)
                Modulus:
                    00:ac:05:34:f3:20:aa:ce:db:2f:65:1b:5a:c9:63:
                    d1:bd:5c:78:b8:bc:cf:69:56:f3:75:ac:43:80:0a:
                    e2:0b:0e:df:95
                Exponent: 65537 (0x10001)
        X509v3 extensions:
            X509v3 Basic Constraints:
                CA:TRUE
    Signature Algorithm: rsassaPss
         Hash Algorithm: sha256
         Mask Algorithm: mgf1 with sha384
          Salt Length: 0x10
         Trailer Field: 0xBC (default)

         55:16:2e:ce
-----BEGIN CERTIFICATE-----
MIIBaDCCAR6gAwIBAgICNvEwPQYJKoZIhvcNAQEKMDCgDTALBglghkgBZQMEAgGh
GjAYBgkqhkiG9w0BAQgwCwYJYIZIAWUDBAICogMCARAwMDEuMCwGA1UEAwwlUlNB
LVBTUzogbXVsdGlwbGUgaGFzaCBmdW5jdGlvbnMgdXNlZDAeFw0xODA4MjIxOTEw
MTdaFw0xODA5MjExOTEwMTdaMDAxLjAsBgNVBAMMJVJTQS1QU1M6IG11bHRpcGxl
IGhhc2ggZnVuY3Rpb25zIHVzZWQwPjANBgkqhkiG9w0BAQEFAAMtADAqAiMArAU0
8yCqztsvZRtayWPRvVx4uLzPaVbzdaxDgAriCw7flQIDAQABoxAwDjAMBgNVHRME
BTADAQH/MD0GCSqGSIb3DQEBCjAwoA0wCwYJYIZIAWUDBAIBoRowGAYJKoZIhvcN
AQEIMAsGCWCGSAFlAwQCAqIDAgEQAwUAVRYuzg==
-----END CERTIFICATE-----
