Certificate:
    Data:
        Version: 3 (0x2)
        Serial Number:
            03:15:50:e1:05:d5:a8:79:54:f9:b9:6d:69:68:8d:38:29:0d
        Signature Algorithm: sha256WithRSAEncryption
        Issuer: C = US, O = Let's Encrypt, CN = Let's Encrypt Authority X3
        Validity
            Not Before: Jan 14 02:00:39 2018 GMT
            Not After : Apr 14 02:00:39 2018 GMT
        Subject:
        Subject Public Key Info:
            Public Key Algorithm: id-ecPublicKey
                Public-Key: (384 bit)
                pub:
                    04:53:55:9b:24:a6:bf:90:e6:53:3c:95:79:15:ec:
                    2a:55:80:a0:7f:cb:77:57:1e:79:89:86:86:9b:44:
                    6b:01:2f:f2:19:f8:c0:b3:06:28:d9:5b:c9:de:79:
                    5a:54:df:11:50:a9:a4:ff:ec:b6:7f:74:48:5c:c8:
                    5b:d5:21:8a:6c:06:ea:20:f3:fd:bb:41:aa:e2:25:
                    c3:78:9f:5a:cd:f6:55:44:a3:b4:d5:19:b6:ed:6f:
                    09:55:3a:fb:c2:6e:84
                ASN1 OID: secp384r1
                NIST CURVE: P-384
        X509v3 extensions:
            X509v3 Key Usage: critical
                Digital Signature
            X509v3 Extended Key Usage:
                TLS Web Server Authentication, TLS Web Client Authentication
            X509v3 Basic Constraints: critical
                CA:FALSE
            X509v3 Subject Key Identifier:
                1A:4A:B0:11:B0:5C:FA:57:FB:49:02:87:65:16:93:37:F7:8D:8E:E6
            X509v3 Authority Key Identifier:
                keyid:A8:4A:6A:63:04:7D:DD:BA:E6:D1:39:B7:A6:45:65:EF:F3:A8:EC:A1

            Authority Information Access:
                OCSP - URI:http://ocsp.int-x3.letsencrypt.org
                CA Issuers - URI:http://cert.int-x3.letsencrypt.org/

            TLS Feature:
                status_request
            X509v3 Certificate Policies:
                Policy: 2.23.140.1.2.1
                Policy: 1.3.6.1.4.1.44947.1.1.1
                  CPS: http://cps.letsencrypt.org
                  User Notice:
                    Explicit Text: This Certificate may only be relied upon by Relying Parties and only in accordance with the Certificate Policy found at https://letsencrypt.org/repository/

    Signature Algorithm: sha256WithRSAEncryption
         92:bc:93:55:38:d5:72:86:57:03:bf:9b:d5:32:43:19:04:77:
         4d:da:67:92:ca:43:72:9e:fc:a2:f4:fc:ff:8c:e2:58:43:66:
         72:7e:b8:6f:77:96:39:a0:e8:1b:3d:0b:92:c1:e4:74:22:42:
         a0:98:87:48:5d:b2:40:26:29:bd:82:f7:c2:c2:7b:f3:64:fc:
         8d:08:cb:3d:22:84:e9:68:f3:84:b2:be:7b:ac:88:e4:1f:55:
         4d:9e:d2:c4:f4:1f:7d:be:7d:49:2b:20:6c:1f:5b:6f:c8:bc:
         98:76:b0:7b:ce:35:51:35:bd:4f:55:06:c1:2d:10:a5:92:65:
         08:1d:0f:69:d3:2d:4b:fa:72:e9:ac:73:28:21:cb:76:f4:f0:
         95:e0:2c:85:1e:f5:81:12:d6:9f:d7:ca:92:aa:f6:fd:36:6f:
         66:3b:e4:57:33:0b:01:c7:22:be:84:ab:f3:ef:1f:de:8b:11:
         fb:96:58:eb:01:94:fa:74:4f:72:08:94:4e:a2:ee:e1:51:ba:
         fa:de:64:8d:86:c4:9c:4e:4f:3f:f3:25:0b:10:55:61:30:fa:
         50:38:c2:bc:f6:34:a6:f1:d4:78:9b:a1:01:78:28:ff:a4:c5:
         4a:01:7e:cf:99:03:c3:77:da:d1:06:9f:fb:39:3d:43:2e:f4:
         9d:e2:69:5e
-----BEGIN CERTIFICATE-----
MIIEMDCCAxigAwIBAgISAxVQ4QXVqHlU+bltaWiNOCkNMA0GCSqGSIb3DQEBCwUA
MEoxCzAJBgNVBAYTAlVTMRYwFAYDVQQKEw1MZXQncyBFbmNyeXB0MSMwIQYDVQQD
ExpMZXQncyBFbmNyeXB0IEF1dGhvcml0eSBYMzAeFw0xODAxMTQwMjAwMzlaFw0x
ODA0MTQwMjAwMzlaMAAwdjAQBgcqhkjOPQIBBgUrgQQAIgNiAARTVZskpr+Q5lM8
lXkV7CpVgKB/y3dXHnmJhoabRGsBL/IZ+MCzBijZW8neeVpU3xFQqaT/7LZ/dEhc
yFvVIYpsBuog8/27QariJcN4n1rN9lVEo7TVGbbtbwlVOvvCboSjggIGMIICAjAO
BgNVHQ8BAf8EBAMCB4AwHQYDVR0lBBYwFAYIKwYBBQUHAwEGCCsGAQUFBwMCMAwG
A1UdEwEB/wQCMAAwHQYDVR0OBBYEFBpKsBGwXPpX+0kCh2UWkzf3jY7mMB8GA1Ud
IwQYMBaAFKhKamMEfd265tE5t6ZFZe/zqOyhMG8GCCsGAQUFBwEBBGMwYTAuBggr
BgEFBQcwAYYiaHR0cDovL29jc3AuaW50LXgzLmxldHNlbmNyeXB0Lm9yZzAvBggr
BgEFBQcwAoYjaHR0cDovL2NlcnQuaW50LXgzLmxldHNlbmNyeXB0Lm9yZy8wEQYI
KwYBBQUHARgEBTADAgEFMIH+BgNVHSAEgfYwgfMwCAYGZ4EMAQIBMIHmBgsrBgEE
AYLfEwEBATCB1jAmBggrBgEFBQcCARYaaHR0cDovL2Nwcy5sZXRzZW5jcnlwdC5v
cmcwgasGCCsGAQUFBwICMIGeDIGbVGhpcyBDZXJ0aWZpY2F0ZSBtYXkgb25seSBi
ZSByZWxpZWQgdXBvbiBieSBSZWx5aW5nIFBhcnRpZXMgYW5kIG9ubHkgaW4gYWNj
b3JkYW5jZSB3aXRoIHRoZSBDZXJ0aWZpY2F0ZSBQb2xpY3kgZm91bmQgYXQgaHR0
cHM6Ly9sZXRzZW5jcnlwdC5vcmcvcmVwb3NpdG9yeS8wDQYJKoZIhvcNAQELBQAD
ggEBAJK8k1U41XKGVwO/m9UyQxkEd03aZ5LKQ3Ke/KL0/P+M4lhDZnJ+uG93ljmg
6Bs9C5LB5HQiQqCYh0hdskAmKb2C98LCe/Nk/I0Iyz0ihOlo84SyvnusiOQfVU2e
0sT0H32+fUkrIGwfW2/IvJh2sHvONVE1vU9VBsEtEKWSZQgdD2nTLUv6cumscygh
y3b08JXgLIUe9YES1p/XypKq9v02b2Y75FczCwHHIr6Eq/PvH96LEfuWWOsBlPp0
T3IIlE6i7uFRuvreZI2GxJxOTz/zJQsQVWEw+lA4wrz2NKbx1HiboQF4KP+kxUoB
fs+ZA8N32tEGn/s5PUMu9J3iaV4=
-----END CERTIFICATE-----
