Certificate:
    Data:
        Version: 3 (0x2)
        Serial Number:
            28:1a:d6:fd:b4:90:53:3f:2d:1d:e6:3f:39:49:db:e9:c8:2b:3a:aa
        Signature Algorithm: ecdsa-with-SHA256
        Issuer: CN = Subject Key Identifier: Arbitrary
        Validity
            Not Before: Jan  4 09:44:46 2020 GMT
            Not After : Dec 11 09:44:46 2119 GMT
        Subject: CN = Subject Key Identifier: Arbitrary
        Subject Public Key Info:
            Public Key Algorithm: id-ecPublicKey
                Public-Key: (112 bit)
                pub:
                    04:2f:d7:ed:b4:8b:0e:82:40:06:07:c5:c4:ab:25:
                    d7:27:d3:54:05:a1:9b:f0:51:23:08:fe:af:96
                ASN1 OID: secp112r1
        X509v3 extensions:
            X509v3 Subject Key Identifier:
                12:34:56:78:9A:BC:DE:F1:11:11:11:11:11:11:11:11:11:11:11:11
            X509v3 Authority Key Identifier:
                keyid:12:34:56:78:9A:BC:DE:F1:11:11:11:11:11:11:11:11:11:11:11:11

            X509v3 Basic Constraints: critical
                CA:TRUE
    Signature Algorithm: ecdsa-with-SHA256
         30:21:02:0f:00:97:79:29:82:f3:dc:33:8a:4a:bb:e6:fc:7e:
         4f:02:0e:7e:76:9b:eb:2c:82:63:ab:5f:10:6d:95:10:bb
-----BEGIN CERTIFICATE-----
MIIBZDCCAS6gAwIBAgIUKBrW/bSQUz8tHeY/OUnb6cgrOqowCgYIKoZIzj0EAwIw
LDEqMCgGA1UEAwwhU3ViamVjdCBLZXkgSWRlbnRpZmllcjogQXJiaXRyYXJ5MCAX
DTIwMDEwNDA5NDQ0NloYDzIxMTkxMjExMDk0NDQ2WjAsMSowKAYDVQQDDCFTdWJq
ZWN0IEtleSBJZGVudGlmaWVyOiBBcmJpdHJhcnkwMjAQBgcqhkjOPQIBBgUrgQQA
BgMeAAQv1+20iw6CQAYHxcSrJdcn01QFoZvwUSMI/q+Wo1MwUTAdBgNVHQ4EFgQU
EjRWeJq83vEREREREREREREREREwHwYDVR0jBBgwFoAUEjRWeJq83vERERERERER
EREREREwDwYDVR0TAQH/BAUwAwEB/zAKBggqhkjOPQQDAgMkADAhAg8Al3kpgvPc
M4pKu+b8fk8CDn52m+ssgmOrXxBtlRC7
-----END CERTIFICATE-----
