Certificate:
    Data:
        Version: 3 (0x2)
        Serial Number:
            28:1a:d6:fd:b4:90:53:3f:2d:1d:e6:3f:39:49:db:e9:c8:2b:3a:aa
        Signature Algorithm: ecdsa-with-SHA256
        Issuer: CN = Subject Key Identifier: Using SHA-256 for hashing
        Validity
            Not Before: Jan  4 09:44:46 2020 GMT
            Not After : Dec 11 09:44:46 2119 GMT
        Subject: CN = Subject Key Identifier: Using SHA-256 for hashing
        Subject Public Key Info:
            Public Key Algorithm: id-ecPublicKey
                Public-Key: (112 bit)
                pub:
                    04:2f:d7:ed:b4:8b:0e:82:40:06:07:c5:c4:ab:25:
                    d7:27:d3:54:05:a1:9b:f0:51:23:08:fe:af:96
                ASN1 OID: secp112r1
        X509v3 extensions:
            X509v3 Subject Key Identifier:
                F8:88:BA:D9:FD:E4:E7:C4:FA:DE:6A:14:68:25:1F:20:7C:27:80:D5:4A:B6:37:0A:48:BC:99:E9:F7:D7:EC:A9
            X509v3 Authority Key Identifier:
                keyid:F8:88:BA:D9:FD:E4:E7:C4:FA:DE:6A:14:68:25:1F:20:7C:27:80:D5:4A:B6:37:0A:48:BC:99:E9:F7:D7:EC:A9

            X509v3 Basic Constraints: critical
                CA:TRUE
    Signature Algorithm: ecdsa-with-SHA256
         30:21:02:0f:00:97:79:29:82:f3:dc:33:8a:4a:bb:e6:fc:7e:
         4f:02:0e:7e:76:9b:eb:2c:82:63:ab:5f:10:6d:95:10:bb
-----BEGIN CERTIFICATE-----
MIIBnDCCAWagAwIBAgIUKBrW/bSQUz8tHeY/OUnb6cgrOqowCgYIKoZIzj0EAwIw
PDE6MDgGA1UEAwwxU3ViamVjdCBLZXkgSWRlbnRpZmllcjogVXNpbmcgU0hBLTI1
NiBmb3IgaGFzaGluZzAgFw0yMDAxMDQwOTQ0NDZaGA8yMTE5MTIxMTA5NDQ0Nlow
PDE6MDgGA1UEAwwxU3ViamVjdCBLZXkgSWRlbnRpZmllcjogVXNpbmcgU0hBLTI1
NiBmb3IgaGFzaGluZzAyMBAGByqGSM49AgEGBSuBBAAGAx4ABC/X7bSLDoJABgfF
xKsl1yfTVAWhm/BRIwj+r5ajazBpMCkGA1UdDgQiBCD4iLrZ/eTnxPreahRoJR8g
fCeA1Uq2NwpIvJnp99fsqTArBgNVHSMEJDAigCD4iLrZ/eTnxPreahRoJR8gfCeA
1Uq2NwpIvJnp99fsqTAPBgNVHRMBAf8EBTADAQH/MAoGCCqGSM49BAMCAyQAMCEC
DwCXeSmC89wzikq75vx+TwIOfnab6yyCY6tfEG2VELs=
-----END CERTIFICATE-----
