Certificate:
    Data:
        Version: 3 (0x2)
        Serial Number:
            28:1a:d6:fd:b4:90:53:3f:2d:1d:e6:3f:39:49:db:e9:c8:2b:3a:aa
        Signature Algorithm: ecdsa-with-SHA256
        Issuer: CN = Unknown public key system
        Validity
            Not Before: Jan  4 09:44:46 2020 GMT
            Not After : Dec 11 09:44:46 2119 GMT
        Subject: CN = Unknown public key system
        Subject Public Key Info:
            Public Key Algorithm: 1.2.3.4.5.6.7
            Unable to load Public Key
140714292790464:error:0609E09C:digital envelope routines:pkey_set_type:unsupported algorithm:crypto/evp/p_lib.c:210:
140714292790464:error:0B09406F:x509 certificate routines:x509_pubkey_decode:unsupported algorithm:crypto/x509/x_pubkey.c:114:
        X509v3 extensions:
            X509v3 Subject Key Identifier:
                05:82:46:02:E9:30:6E:6A:83:85:7C:43:07:A7:69:2F:24:B4:B3:17
            X509v3 Authority Key Identifier:
                keyid:05:82:46:02:E9:30:6E:6A:83:85:7C:43:07:A7:69:2F:24:B4:B3:17

            X509v3 Basic Constraints: critical
                CA:TRUE
    Signature Algorithm: ecdsa-with-SHA256
         30:21:02:0f:00:97:79:29:82:f3:dc:33:8a:4a:bb:e6:fc:7e:
         4f:02:0e:7e:76:9b:eb:2c:82:63:ab:5f:10:6d:95:10:bb
-----BEGIN CERTIFICATE-----
MIIBUzCCAR2gAwIBAgIUKBrW/bSQUz8tHeY/OUnb6cgrOqowCgYIKoZIzj0EAwIw
JDEiMCAGA1UEAwwZVW5rbm93biBwdWJsaWMga2V5IHN5c3RlbTAgFw0yMDAxMDQw
OTQ0NDZaGA8yMTE5MTIxMTA5NDQ0NlowJDEiMCAGA1UEAwwZVW5rbm93biBwdWJs
aWMga2V5IHN5c3RlbTAxMA8GBioDBAUGBwYFK4EEAAYDHgAEL9fttIsOgkAGB8XE
qyXXJ9NUBaGb8FEjCP6vlqNTMFEwHQYDVR0OBBYEFAWCRgLpMG5qg4V8QwenaS8k
tLMXMB8GA1UdIwQYMBaAFAWCRgLpMG5qg4V8QwenaS8ktLMXMA8GA1UdEwEB/wQF
MAMBAf8wCgYIKoZIzj0EAwIDJAAwIQIPAJd5KYLz3DOKSrvm/H5PAg5+dpvrLIJj
q18QbZUQuw==
-----END CERTIFICATE-----
