Certificate:
    Data:
        Version: 3 (0x2)
        Serial Number: 17 (0x11)
        Signature Algorithm: ecdsa-with-SHA256
        Issuer: CN = Root CA
        Validity
            Not Before: Jul 14 16:00:53 2018 GMT
            Not After : Jul 14 16:00:53 2019 GMT
        Subject: CN = 0b239049-3d65-46c2-8fdd-90f13cadc70b
        Subject Public Key Info:
            Public Key Algorithm: id-ecPublicKey
                Public-Key: (256 bit)
                pub:
                    04:19:4b:04:5d:26:42:b3:de:54:e8:78:3b:79:07:
                    d0:82:d2:bb:6e:1b:85:84:c5:66:5d:8d:13:79:b8:
                    b1:2f:ab:bb:5b:a8:18:17:07:d1:99:65:a8:3a:cd:
                    42:ca:42:14:22:45:74:92:29:65:e0:98:24:fa:b3:
                    3d:fa:b7:dc:cf
                ASN1 OID: prime256v1
                NIST CURVE: P-256
        X509v3 extensions:
            X509v3 Extended Key Usage:
                1.2.3.4.5.6.7.8.9, 2.2.2.2.2, Code Signing
    Signature Algorithm: ecdsa-with-SHA256
         30:65:02:30:18:3b:a6:e9:14:cc:1e:b2:1e:c8:da:9d:21:17:
         df:b0:b2:4b:b2:86:ce:20:cc:ad:53:7c:29:7e:e5:de:8a:90:
         09:35:60:53:f1:33:86:9d:7e:17:9c:f7:1e:47:e9:bc:02:31:
         00:cf:56:d2:a5:39:62:65:55:1a:e5:77:1a:84:a8:26:05:46:
         84:15:35:27:c1:f0:bc:73:68:f2:6d:cd:9a:bb:25:44:f9:75:
         40:b2:d3:fc:c6:9a:cc:21:67:8b:0e:6a:e7
-----BEGIN CERTIFICATE-----
MIIBdjCB/aADAgECAgERMAoGCCqGSM49BAMCMBIxEDAOBgNVBAMMB1Jvb3QgQ0Ew
HhcNMTgwNzE0MTYwMDUzWhcNMTkwNzE0MTYwMDUzWjAvMS0wKwYDVQQDDCQwYjIz
OTA0OS0zZDY1LTQ2YzItOGZkZC05MGYxM2NhZGM3MGIwWTATBgcqhkjOPQIBBggq
hkjOPQMBBwNCAAQZSwRdJkKz3lToeDt5B9CC0rtuG4WExWZdjRN5uLEvq7tbqBgX
B9GZZag6zULKQhQiRXSSKWXgmCT6sz36t9zPoycwJTAjBgNVHSUEHDAaBggqAwQF
BgcICQYEUgICAgYIKwYBBQUHAwMwCgYIKoZIzj0EAwIDaAAwZQIwGDum6RTMHrIe
yNqdIRffsLJLsobOIMytU3wpfuXeipAJNWBT8TOGnX4XnPceR+m8AjEAz1bSpTli
ZVUa5XcahKgmBUaEFTUnwfC8c2jybc2auyVE+XVAstP8xprMIWeLDmrn
-----END CERTIFICATE-----
