Certificate:
    Data:
        Version: 3 (0x2)
        Serial Number:
            10:59:48:bf:a1:ac:e2:e7:82:2e:55:7f:63:9a:c2:61:02:d2:fb:1a
        Signature Algorithm: dsa_with_SHA256
        Issuer: CN = DSA certificate SHA256
        Validity
            Not Before: Dec 31 16:10:35 2019 GMT
            Not After : Dec  7 16:10:35 2119 GMT
        Subject: CN = DSA certificate SHA256
        Subject Public Key Info:
            Public Key Algorithm: dsaEncryption
                pub: 
                    00:98:fd:72:17:56:78:8b:ec:aa:30:ff:5a:00:c1:
                    86:5b:d7:c0:88:fa:80:aa:78:aa:67:1f:18:17:56:
                    d8:7d:b8:37:91:cc:e0:0d:e0:ed:70:e2:a5:0a:f8:
                    bf:44:5c:18:54:11:59:ff:2c:cb:80:5c:35:f0:00:
                    98:bb:db:4d:79:66:06:4b:cc:fd:15:64:6f:dc:7f:
                    9e:1a:f1:39:1b:2c:0d:a6:49:99:cb:de:a8:bc:37:
                    5a:38:b4:06:29:42:95:be:45:ea:25:c1:e7:22:a4:
                    d8:39:47:d6:d8:9f:85:b7:52:a6:95:a3:82:fc:57:
                    0e:77:8c:97:38:a8:b0:76:ed
                P:   
                    00:9c:b3:11:e3:62:b8:29:7d:dc:80:bc:c6:66:fd:
                    a3:b9:fb:68:4f:bb:cd:6e:78:0a:b0:1c:74:e2:ac:
                    83:4d:52:07:a9:fb:3b:42:b7:d4:32:00:6c:25:ad:
                    88:69:5f:bd:f8:02:2a:67:5d:1c:c1:d4:bc:3d:ae:
                    cf:1d:22:bb:db:74:f0:62:b3:8e:a1:55:1a:11:6b:
                    7c:0b:fd:18:7d:ad:e5:19:20:da:42:18:84:fe:d5:
                    4e:b8:4a:cb:d3:4c:b1:04:dd:54:9a:e6:33:91:6e:
                    2d:ff:7f:0b:8b:51:52:37:27:c2:27:08:15:21:32:
                    2b:92:79:16:35:39:de:7e:9b
                Q:   
                    00:91:28:10:0f:90:ed:95:d4:ca:1f:49:d7:08:03:
                    bc:3e:b5:6c:f0:81
                G:   
                    6a:ff:bc:a7:c0:64:5d:b2:da:0b:bd:ed:d5:be:6a:
                    f8:8a:6c:ac:94:80:25:cc:8e:d5:6c:b8:d1:87:e8:
                    90:77:d4:4c:bf:69:90:8e:e8:78:b2:24:65:92:b0:
                    8d:c9:50:85:a3:88:09:fe:2c:0e:14:61:89:58:8a:
                    81:31:ac:11:ad:26:9d:6e:31:82:76:c7:ae:3f:52:
                    f6:16:49:f4:fc:1c:ce:6b:0f:53:d3:5a:9e:94:37:
                    32:97:c5:09:3e:5f:9f:7b:bf:79:cc:b1:30:4e:5b:
                    20:1c:e3:68:fc:d7:72:4f:4c:92:67:32:55:b3:80:
                    83:d3:b7:dc:fb:84:b9:ac
        X509v3 extensions:
            X509v3 Subject Key Identifier: 
                98:A5:EF:3C:63:45:50:35:6F:ED:C1:C2:F0:C4:C9:1A:A6:B5:00:C9
            X509v3 Authority Key Identifier: 
                keyid:98:A5:EF:3C:63:45:50:35:6F:ED:C1:C2:F0:C4:C9:1A:A6:B5:00:C9

            X509v3 Basic Constraints: critical
                CA:TRUE
    Signature Algorithm: dsa_with_SHA256
         r:   
             10:69:b6:1f:83:c7:aa:89:ac:19:02:99:26:c5:ac:
             75:34:90:82:49
         s:   
             21:5f:d2:38:f3:80:01:8f:98:07:ab:8e:c2:b0:26:
             e5:cd:65:e9:46
-----BEGIN CERTIFICATE-----
MIIC4jCCAqCgAwIBAgIUEFlIv6Gs4ueCLlV/Y5rCYQLS+xowCwYJYIZIAWUDBAMC
MCExHzAdBgNVBAMMFkRTQSBjZXJ0aWZpY2F0ZSBTSEEyNTYwIBcNMTkxMjMxMTYx
MDM1WhgPMjExOTEyMDcxNjEwMzVaMCExHzAdBgNVBAMMFkRTQSBjZXJ0aWZpY2F0
ZSBTSEEyNTYwggG3MIIBKwYHKoZIzjgEATCCAR4CgYEAnLMR42K4KX3cgLzGZv2j
uftoT7vNbngKsBx04qyDTVIHqfs7QrfUMgBsJa2IaV+9+AIqZ10cwdS8Pa7PHSK7
23TwYrOOoVUaEWt8C/0Yfa3lGSDaQhiE/tVOuErL00yxBN1UmuYzkW4t/38Li1FS
NyfCJwgVITIrknkWNTnefpsCFQCRKBAPkO2V1MofSdcIA7w+tWzwgQKBgGr/vKfA
ZF2y2gu97dW+aviKbKyUgCXMjtVsuNGH6JB31Ey/aZCO6HiyJGWSsI3JUIWjiAn+
LA4UYYlYioExrBGtJp1uMYJ2x64/UvYWSfT8HM5rD1PTWp6UNzKXxQk+X597v3nM
sTBOWyAc42j813JPTJJnMlWzgIPTt9z7hLmsA4GFAAKBgQCY/XIXVniL7Kow/1oA
wYZb18CI+oCqeKpnHxgXVth9uDeRzOAN4O1w4qUK+L9EXBhUEVn/LMuAXDXwAJi7
2015ZgZLzP0VZG/cf54a8TkbLA2mSZnL3qi8N1o4tAYpQpW+ReolwecipNg5R9bY
n4W3UqaVo4L8Vw53jJc4qLB27aNTMFEwHQYDVR0OBBYEFJil7zxjRVA1b+3BwvDE
yRqmtQDJMB8GA1UdIwQYMBaAFJil7zxjRVA1b+3BwvDEyRqmtQDJMA8GA1UdEwEB
/wQFMAMBAf8wCwYJYIZIAWUDBAMCAy8AMCwCFBBpth+Dx6qJrBkCmSbFrHU0kIJJ
AhQhX9I484ABj5gHq47CsCblzWXpRg==
-----END CERTIFICATE-----
