Certificate:
    Data:
        Version: 3 (0x2)
        Serial Number:
            53:b3:dc:20:0a:78:6e:74:60:09:61:5e:d9:05:ba:29:ea:da:35:a1
        Signature Algorithm: dsaWithSHA1
        Issuer: CN = DSA certificate SHA1
        Validity
            Not Before: Dec 31 16:10:44 2019 GMT
            Not After : Dec  7 16:10:44 2119 GMT
        Subject: CN = DSA certificate SHA1
        Subject Public Key Info:
            Public Key Algorithm: dsaEncryption
                pub: 
                    00:98:fd:72:17:56:78:8b:ec:aa:30:ff:5a:00:c1:
                    86:5b:d7:c0:88:fa:80:aa:78:aa:67:1f:18:17:56:
                    d8:7d:b8:37:91:cc:e0:0d:e0:ed:70:e2:a5:0a:f8:
                    bf:44:5c:18:54:11:59:ff:2c:cb:80:5c:35:f0:00:
                    98:bb:db:4d:79:66:06:4b:cc:fd:15:64:6f:dc:7f:
                    9e:1a:f1:39:1b:2c:0d:a6:49:99:cb:de:a8:bc:37:
                    5a:38:b4:06:29:42:95:be:45:ea:25:c1:e7:22:a4:
                    d8:39:47:d6:d8:9f:85:b7:52:a6:95:a3:82:fc:57:
                    0e:77:8c:97:38:a8:b0:76:ed
                P:   
                    00:9c:b3:11:e3:62:b8:29:7d:dc:80:bc:c6:66:fd:
                    a3:b9:fb:68:4f:bb:cd:6e:78:0a:b0:1c:74:e2:ac:
                    83:4d:52:07:a9:fb:3b:42:b7:d4:32:00:6c:25:ad:
                    88:69:5f:bd:f8:02:2a:67:5d:1c:c1:d4:bc:3d:ae:
                    cf:1d:22:bb:db:74:f0:62:b3:8e:a1:55:1a:11:6b:
                    7c:0b:fd:18:7d:ad:e5:19:20:da:42:18:84:fe:d5:
                    4e:b8:4a:cb:d3:4c:b1:04:dd:54:9a:e6:33:91:6e:
                    2d:ff:7f:0b:8b:51:52:37:27:c2:27:08:15:21:32:
                    2b:92:79:16:35:39:de:7e:9b
                Q:   
                    00:91:28:10:0f:90:ed:95:d4:ca:1f:49:d7:08:03:
                    bc:3e:b5:6c:f0:81
                G:   
                    6a:ff:bc:a7:c0:64:5d:b2:da:0b:bd:ed:d5:be:6a:
                    f8:8a:6c:ac:94:80:25:cc:8e:d5:6c:b8:d1:87:e8:
                    90:77:d4:4c:bf:69:90:8e:e8:78:b2:24:65:92:b0:
                    8d:c9:50:85:a3:88:09:fe:2c:0e:14:61:89:58:8a:
                    81:31:ac:11:ad:26:9d:6e:31:82:76:c7:ae:3f:52:
                    f6:16:49:f4:fc:1c:ce:6b:0f:53:d3:5a:9e:94:37:
                    32:97:c5:09:3e:5f:9f:7b:bf:79:cc:b1:30:4e:5b:
                    20:1c:e3:68:fc:d7:72:4f:4c:92:67:32:55:b3:80:
                    83:d3:b7:dc:fb:84:b9:ac
        X509v3 extensions:
            X509v3 Subject Key Identifier: 
                98:A5:EF:3C:63:45:50:35:6F:ED:C1:C2:F0:C4:C9:1A:A6:B5:00:C9
            X509v3 Authority Key Identifier: 
                keyid:98:A5:EF:3C:63:45:50:35:6F:ED:C1:C2:F0:C4:C9:1A:A6:B5:00:C9

            X509v3 Basic Constraints: critical
                CA:TRUE
    Signature Algorithm: dsaWithSHA1
         r:   
             6e:4f:26:b9:73:8e:62:3f:05:be:a7:d0:5a:e3:5f:
             f6:d1:35:e6:13
         s:   
             04:80:a8:6f:4f:07:4d:5e:b0:d9:46:d8:f8:fc:f7:
             fc:72:da:ad:2d
-----BEGIN CERTIFICATE-----
MIIC2jCCApqgAwIBAgIUU7PcIAp4bnRgCWFe2QW6KeraNaEwCQYHKoZIzjgEAzAf
MR0wGwYDVQQDDBREU0EgY2VydGlmaWNhdGUgU0hBMTAgFw0xOTEyMzExNjEwNDRa
GA8yMTE5MTIwNzE2MTA0NFowHzEdMBsGA1UEAwwURFNBIGNlcnRpZmljYXRlIFNI
QTEwggG3MIIBKwYHKoZIzjgEATCCAR4CgYEAnLMR42K4KX3cgLzGZv2juftoT7vN
bngKsBx04qyDTVIHqfs7QrfUMgBsJa2IaV+9+AIqZ10cwdS8Pa7PHSK723TwYrOO
oVUaEWt8C/0Yfa3lGSDaQhiE/tVOuErL00yxBN1UmuYzkW4t/38Li1FSNyfCJwgV
ITIrknkWNTnefpsCFQCRKBAPkO2V1MofSdcIA7w+tWzwgQKBgGr/vKfAZF2y2gu9
7dW+aviKbKyUgCXMjtVsuNGH6JB31Ey/aZCO6HiyJGWSsI3JUIWjiAn+LA4UYYlY
ioExrBGtJp1uMYJ2x64/UvYWSfT8HM5rD1PTWp6UNzKXxQk+X597v3nMsTBOWyAc
42j813JPTJJnMlWzgIPTt9z7hLmsA4GFAAKBgQCY/XIXVniL7Kow/1oAwYZb18CI
+oCqeKpnHxgXVth9uDeRzOAN4O1w4qUK+L9EXBhUEVn/LMuAXDXwAJi72015ZgZL
zP0VZG/cf54a8TkbLA2mSZnL3qi8N1o4tAYpQpW+ReolwecipNg5R9bYn4W3UqaV
o4L8Vw53jJc4qLB27aNTMFEwHQYDVR0OBBYEFJil7zxjRVA1b+3BwvDEyRqmtQDJ
MB8GA1UdIwQYMBaAFJil7zxjRVA1b+3BwvDEyRqmtQDJMA8GA1UdEwEB/wQFMAMB
Af8wCQYHKoZIzjgEAwMvADAsAhRuTya5c45iPwW+p9Ba41/20TXmEwIUBICob08H
TV6w2UbY+Pz3/HLarS0=
-----END CERTIFICATE-----
