Certificate:
    Data:
        Version: 3 (0x2)
        Serial Number:
            5e:21:a9:00:c5:e1:d7:65:32:ed:23:4e:ae:8f:05:ea:fb:66:c9:49
        Signature Algorithm: ecdsa-with-SHA256
        Issuer: CN = sect283r1
        Validity
            Not Before: Dec 22 19:21:57 2019 GMT
            Not After : Nov 28 19:21:57 2119 GMT
        Subject: CN = sect283r1
        Subject Public Key Info:
            Public Key Algorithm: id-ecPublicKey
                Public-Key: (282 bit)
                pub:
                    04:03:60:3c:7b:e7:79:2f:32:0f:85:c3:e8:7a:6e:
                    c7:5d:0d:e6:be:b5:18:b0:2c:f4:ed:84:a1:7f:22:
                    ea:36:94:f9:69:1c:c5:07:78:00:35:cf:05:9e:52:
                    f8:7c:e6:21:d0:a1:91:14:9e:65:d2:a4:b2:d7:1b:
                    33:91:d8:47:28:83:85:da:53:12:e1:df:de
                ASN1 OID: sect283r1
                NIST CURVE: B-283
        X509v3 extensions:
            X509v3 Subject Key Identifier:
                EC:2F:99:1E:3A:2C:BC:21:6E:7A:60:83:C5:14:C9:30:25:55:37:A0
            X509v3 Authority Key Identifier:
                keyid:EC:2F:99:1E:3A:2C:BC:21:6E:7A:60:83:C5:14:C9:30:25:55:37:A0

            X509v3 Basic Constraints: critical
                CA:TRUE
    Signature Algorithm: ecdsa-with-SHA256
         30:4c:02:24:02:24:80:ce:9a:55:f8:a7:79:fd:fc:43:a4:2e:
         71:a4:fa:05:23:61:ad:05:7a:4a:f1:73:e6:f2:d2:0d:50:1e:
         22:49:94:1e:02:24:00:c2:f1:13:8e:e8:68:fc:b4:54:e2:5b:
         70:16:45:21:84:44:36:93:53:56:21:48:ed:c0:d2:e6:4d:33:
         71:aa:3f:28:70:c7
-----BEGIN CERTIFICATE-----
MIIBizCCASqgAwIBAgIUXiGpAMXh12Uy7SNOro8F6vtmyUkwCgYIKoZIzj0EAwIw
FDESMBAGA1UEAwwJc2VjdDI4M3IxMCAXDTE5MTIyMjE5MjE1N1oYDzIxMTkxMTI4
MTkyMTU3WjAUMRIwEAYDVQQDDAlzZWN0MjgzcjEwXjAQBgcqhkjOPQIBBgUrgQQA
EQNKAAQDYDx753kvMg+Fw+h6bsddDea+tRiwLPTthKF/Iuo2lPlpHMUHeAA1zwWe
Uvh85iHQoZEUnmXSpLLXGzOR2Ecog4XaUxLh396jUzBRMB0GA1UdDgQWBBTsL5ke
Oiy8IW56YIPFFMkwJVU3oDAfBgNVHSMEGDAWgBTsL5keOiy8IW56YIPFFMkwJVU3
oDAPBgNVHRMBAf8EBTADAQH/MAoGCCqGSM49BAMCA08AMEwCJAIkgM6aVfinef38
Q6QucaT6BSNhrQV6SvFz5vLSDVAeIkmUHgIkAMLxE47oaPy0VOJbcBZFIYRENpNT
ViFI7cDS5k0zcao/KHDH
-----END CERTIFICATE-----
