Certificate:
    Data:
        Version: 3 (0x2)
        Serial Number:
            67:72:e2:63:e6:59:56:13:09:8c:6e:b2:c0:72:fd:46:8f:63:d8:04
        Signature Algorithm: ecdsa-with-SHA256
        Issuer: CN = ECC explicit parameter encoding binary field ppBasis
        Validity
            Not Before: Dec 29 14:38:11 2019 GMT
            Not After : Dec  5 14:38:11 2119 GMT
        Subject: CN = ECC explicit parameter encoding binary field ppBasis
        Subject Public Key Info:
            Public Key Algorithm: id-ecPublicKey
                Public-Key: (131 bit)
                pub:
                    04:07:ce:97:5d:cb:2d:fd:a7:f3:73:e5:b1:c3:8c:
                    ef:98:27:07:b0:3c:65:5e:ef:39:21:a3:29:68:eb:
                    fc:42:3b:76:7f
                Field Type: characteristic-two-field
                Basis Type: ppBasis
                Polynomial:
                    08:00:00:00:00:00:00:00:00:00:00:00:00:00:00:
                    01:0d
                A:
                    07:a1:1b:09:a7:6b:56:21:44:41:8f:f3:ff:8c:25:
                    70:b8
                B:
                    02:17:c0:56:10:88:4b:63:b9:c6:c7:29:16:78:f9:
                    d3:41
                Generator (uncompressed):
                    04:00:81:ba:f9:1f:df:98:33:c4:0f:9c:18:13:43:
                    63:83:99:07:8c:6e:7e:a3:8c:00:1f:73:c8:13:4b:
                    1b:4e:f9:e1:50
                Order:
                    04:00:00:00:00:00:00:00:02:31:23:95:3a:94:64:
                    b5:4d
                Cofactor:  2 (0x2)
                Seed:
                    4d:69:6e:67:68:75:61:51:75:98:5b:d3:ad:ba:da:
                    21:b4:3a:97:e2
        X509v3 extensions:
            X509v3 Subject Key Identifier:
                67:73:EF:1C:5E:13:6B:ED:DD:55:0B:02:0C:9C:99:96:89:89:63:1E
            X509v3 Authority Key Identifier:
                keyid:67:73:EF:1C:5E:13:6B:ED:DD:55:0B:02:0C:9C:99:96:89:89:63:1E

            X509v3 Basic Constraints: critical
                CA:TRUE
    Signature Algorithm: ecdsa-with-SHA256
         30:26:02:11:02:b0:22:c4:0f:4a:20:21:e5:56:5e:a0:40:11:
         55:e4:15:02:11:01:df:08:45:71:0a:74:14:78:05:aa:99:1e:
         fb:54:f1:9f
-----BEGIN CERTIFICATE-----
MIICNzCCAfygAwIBAgIUZ3LiY+ZZVhMJjG6ywHL9Ro9j2AQwCgYIKoZIzj0EAwIw
PzE9MDsGA1UEAww0RUNDIGV4cGxpY2l0IHBhcmFtZXRlciBlbmNvZGluZyBiaW5h
cnkgZmllbGQgcHBCYXNpczAgFw0xOTEyMjkxNDM4MTFaGA8yMTE5MTIwNTE0Mzgx
MVowPzE9MDsGA1UEAww0RUNDIGV4cGxpY2l0IHBhcmFtZXRlciBlbmNvZGluZyBi
aW5hcnkgZmllbGQgcHBCYXNpczCB2TCBsAYHKoZIzj0CATCBpAIBATAlBgcqhkjO
PQECMBoCAgCDBgkqhkjOPQECAwMwCQIBAgIBAwIBCDA9BBEHoRsJp2tWIURBj/P/
jCVwuAQRAhfAVhCIS2O5xscpFnj500EDFQBNaW5naHVhUXWYW9OtutohtDqX4gQj
BACBuvkf35gzxA+cGBNDY4OZB4xufqOMAB9zyBNLG0754VACEQQAAAAAAAAAAjEj
lTqUZLVNAgECAyQABAfOl13LLf2n83PlscOM75gnB7A8ZV7vOSGjKWjr/EI7dn+j
UzBRMB0GA1UdDgQWBBRnc+8cXhNr7d1VCwIMnJmWiYljHjAfBgNVHSMEGDAWgBRn
c+8cXhNr7d1VCwIMnJmWiYljHjAPBgNVHRMBAf8EBTADAQH/MAoGCCqGSM49BAMC
AykAMCYCEQKwIsQPSiAh5VZeoEARVeQVAhEB3whFcQp0FHgFqpke+1Txnw==
-----END CERTIFICATE-----
