Certificate:
    Data:
        Version: 3 (0x2)
        Serial Number:
            5c:2f:a4:87:0f:c2:e7:e6:35:c2:8a:33:01:bc:b6:26:c2:55:02:e6
        Signature Algorithm: ecdsa-with-SHA256
        Issuer: CN = secp256k1
        Validity
            Not Before: Dec 22 19:22:15 2019 GMT
            Not After : Nov 28 19:22:15 2119 GMT
        Subject: CN = secp256k1
        Subject Public Key Info:
            Public Key Algorithm: id-ecPublicKey
                Public-Key: (256 bit)
                pub:
                    04:b1:b3:ea:a1:e6:b0:82:fd:6c:71:d2:4c:f7:d5:
                    45:53:9f:87:2f:ef:c5:68:93:92:0a:a4:eb:c0:ca:
                    11:a5:33:f8:36:98:a9:38:bd:38:80:bd:d1:8d:21:
                    07:04:fd:7a:23:8a:e3:d0:9b:96:c8:87:90:3d:e0:
                    8b:85:3b:85:43
                ASN1 OID: secp256k1
        X509v3 extensions:
            X509v3 Subject Key Identifier:
                C9:9F:21:E0:54:BC:42:56:E4:58:2F:3E:8D:FA:13:BA:20:97:4B:91
            X509v3 Authority Key Identifier:
                keyid:C9:9F:21:E0:54:BC:42:56:E4:58:2F:3E:8D:FA:13:BA:20:97:4B:91

            X509v3 Basic Constraints: critical
                CA:TRUE
    Signature Algorithm: ecdsa-with-SHA256
         30:46:02:21:00:b9:b7:cc:df:2f:0f:81:ce:91:e2:ad:f5:28:
         ed:30:83:7d:b1:5b:13:04:fc:0c:97:69:31:ec:30:2a:bb:af:
         5b:02:21:00:86:80:37:1f:a5:f4:8b:a1:81:1b:22:7b:b1:fb:
         30:b1:69:ab:3a:5e:0e:5f:7f:91:9d:17:a8:ba:1e:f3:fe:b8
-----BEGIN CERTIFICATE-----
MIIBfTCCASKgAwIBAgIUXC+khw/C5+Y1woozAby2JsJVAuYwCgYIKoZIzj0EAwIw
FDESMBAGA1UEAwwJc2VjcDI1NmsxMCAXDTE5MTIyMjE5MjIxNVoYDzIxMTkxMTI4
MTkyMjE1WjAUMRIwEAYDVQQDDAlzZWNwMjU2azEwVjAQBgcqhkjOPQIBBgUrgQQA
CgNCAASxs+qh5rCC/Wxx0kz31UVTn4cv78Vok5IKpOvAyhGlM/g2mKk4vTiAvdGN
IQcE/XojiuPQm5bIh5A94IuFO4VDo1MwUTAdBgNVHQ4EFgQUyZ8h4FS8QlbkWC8+
jfoTuiCXS5EwHwYDVR0jBBgwFoAUyZ8h4FS8QlbkWC8+jfoTuiCXS5EwDwYDVR0T
AQH/BAUwAwEB/zAKBggqhkjOPQQDAgNJADBGAiEAubfM3y8Pgc6R4q31KO0wg32x
WxME/AyXaTHsMCq7r1sCIQCGgDcfpfSLoYEbInux+zCxaas6Xg5ff5GdF6i6HvP+
uA==
-----END CERTIFICATE-----
