Certificate:
    Data:
        Version: 3 (0x2)
        Serial Number:
            5c:26:a4:2e:0b:b9:25:11:6d:dd:da:d9:6e:16:f8:f9:4a:8c:d2:d6
        Signature Algorithm: ecdsa-with-SHA256
        Issuer: CN = ECC explicit parameter encoding binary field tpBasis
        Validity
            Not Before: Dec 29 14:38:20 2019 GMT
            Not After : Dec  5 14:38:20 2119 GMT
        Subject: CN = ECC explicit parameter encoding binary field tpBasis
        Subject Public Key Info:
            Public Key Algorithm: id-ecPublicKey
                Public-Key: (113 bit)
                pub:
                    04:01:24:1c:ee:a1:00:ff:f6:61:4e:ea:9c:b1:93:
                    1b:00:78:f5:1b:4a:34:e5:e7:fc:9f:a1:37:5d:1e:
                    04
                Field Type: characteristic-two-field
                Basis Type: tpBasis
                Polynomial:
                    02:00:00:00:00:00:00:00:00:00:00:00:00:02:01
                A:
                    30:88:25:0c:a6:e7:c7:fe:64:9c:e8:58:20:f7
                B:
                    00:e8:be:e4:d3:e2:26:07:44:18:8b:e0:e9:c7:23
                Generator (uncompressed):
                    04:00:9d:73:61:6f:35:f4:ab:14:07:d7:35:62:c1:
                    0f:00:a5:28:30:27:79:58:ee:84:d1:31:5e:d3:18:
                    86
                Order:
                    01:00:00:00:00:00:00:00:d9:cc:ec:8a:39:e5:6f
                Cofactor:  2 (0x2)
                Seed:
                    10:e7:23:ab:14:d6:96:e6:76:87:56:15:17:56:fe:
                    bf:8f:cb:49:a9
        X509v3 extensions:
            X509v3 Subject Key Identifier:
                B7:31:0F:15:A8:2B:88:65:19:56:06:F1:15:09:CB:D7:FD:7E:EE:6F
            X509v3 Authority Key Identifier:
                keyid:B7:31:0F:15:A8:2B:88:65:19:56:06:F1:15:09:CB:D7:FD:7E:EE:6F

            X509v3 Basic Constraints: critical
                CA:TRUE
    Signature Algorithm: ecdsa-with-SHA256
         30:21:02:0e:74:0d:c6:42:12:a6:96:17:aa:89:12:a3:90:4a:
         02:0f:00:b8:ad:a8:82:40:76:de:c9:ed:c3:a9:06:1d:d4
-----BEGIN CERTIFICATE-----
MIICGzCCAeWgAwIBAgIUXCakLgu5JRFt3drZbhb4+UqM0tYwCgYIKoZIzj0EAwIw
PzE9MDsGA1UEAww0RUNDIGV4cGxpY2l0IHBhcmFtZXRlciBlbmNvZGluZyBiaW5h
cnkgZmllbGQgdHBCYXNpczAgFw0xOTEyMjkxNDM4MjBaGA8yMTE5MTIwNTE0Mzgy
MFowPzE9MDsGA1UEAww0RUNDIGV4cGxpY2l0IHBhcmFtZXRlciBlbmNvZGluZyBi
aW5hcnkgZmllbGQgdHBCYXNpczCBwjCBnQYHKoZIzj0CATCBkQIBATAcBgcqhkjO
PQECMBECAXEGCSqGSM49AQIDAgIBCTA5BA8AMIglDKbnx/5knOhYIPcEDwDovuTT
4iYHRBiL4OnHIwMVABDnI6sU1pbmdodWFRdW/r+Py0mpBB8EAJ1zYW819KsUB9c1
YsEPAKUoMCd5WO6E0TFe0xiGAg8BAAAAAAAAANnM7Io55W8CAQIDIAAEASQc7qEA
//ZhTuqcsZMbAHj1G0o05ef8n6E3XR4Eo1MwUTAdBgNVHQ4EFgQUtzEPFagriGUZ
VgbxFQnL1/1+7m8wHwYDVR0jBBgwFoAUtzEPFagriGUZVgbxFQnL1/1+7m8wDwYD
VR0TAQH/BAUwAwEB/zAKBggqhkjOPQQDAgMkADAhAg50DcZCEqaWF6qJEqOQSgIP
ALitqIJAdt7J7cOpBh3U
-----END CERTIFICATE-----
