Certificate:
    Data:
        Version: 3 (0x2)
        Serial Number:
            11:6c:d5:52:ad:99:9f:be:a3:d1:42:37:ab:2a:83:e6:4e:0e:21:f0
        Signature Algorithm: ecdsa-with-SHA256
        Issuer: CN = Test cert with private key present
        Validity
            Not Before: Dec 21 16:19:34 2019 GMT
            Not After : Nov 27 16:19:34 2119 GMT
        Subject: CN = Test cert with private key present
        Subject Public Key Info:
            Public Key Algorithm: id-ecPublicKey
                Public-Key: (256 bit)
                pub:
                    04:47:74:53:1f:88:4f:d6:4b:f4:ad:6f:2e:af:6f:
                    1b:77:7b:5f:4e:16:3c:6a:35:44:49:af:98:bb:31:
                    51:d2:af:4b:17:e0:6b:9f:14:83:10:69:35:6e:9f:
                    5f:51:11:63:a1:a7:03:2c:59:d8:bb:ea:30:43:39:
                    ac:86:d8:4c:b5
                ASN1 OID: prime256v1
                NIST CURVE: P-256
        X509v3 extensions:
            X509v3 Subject Key Identifier:
                CF:CF:9C:9E:3C:E0:D5:07:39:D3:F4:D8:EE:D8:3E:11:81:90:53:87
            X509v3 Authority Key Identifier:
                keyid:CF:CF:9C:9E:3C:E0:D5:07:39:D3:F4:D8:EE:D8:3E:11:81:90:53:87

            X509v3 Basic Constraints: critical
                CA:TRUE
    Signature Algorithm: ecdsa-with-SHA256
         30:46:02:21:00:a0:78:48:6e:d7:7a:02:49:11:ff:27:73:8d:
         60:df:4c:a7:b3:c8:38:7d:2d:fc:f4:29:7c:7e:26:ae:eb:d1:
         59:02:21:00:d9:55:36:67:66:a3:fb:3d:ad:a2:57:9f:c5:d0:
         ed:b9:67:96:46:bc:ec:ec:5f:77:84:e0:d4:1e:1e:fe:80:a6
-----BEGIN CERTIFICATE-----
MIIBsjCCAVegAwIBAgIUEWzVUq2Zn76j0UI3qyqD5k4OIfAwCgYIKoZIzj0EAwIw
LTErMCkGA1UEAwwiVGVzdCBjZXJ0IHdpdGggcHJpdmF0ZSBrZXkgcHJlc2VudDAg
Fw0xOTEyMjExNjE5MzRaGA8yMTE5MTEyNzE2MTkzNFowLTErMCkGA1UEAwwiVGVz
dCBjZXJ0IHdpdGggcHJpdmF0ZSBrZXkgcHJlc2VudDBZMBMGByqGSM49AgEGCCqG
SM49AwEHA0IABEd0Ux+IT9ZL9K1vLq9vG3d7X04WPGo1REmvmLsxUdKvSxfga58U
gxBpNW6fX1ERY6GnAyxZ2LvqMEM5rIbYTLWjUzBRMB0GA1UdDgQWBBTPz5yePODV
BznT9Nju2D4RgZBThzAfBgNVHSMEGDAWgBTPz5yePODVBznT9Nju2D4RgZBThzAP
BgNVHRMBAf8EBTADAQH/MAoGCCqGSM49BAMCA0kAMEYCIQCgeEhu13oCSRH/J3ON
YN9Mp7PIOH0t/PQpfH4mruvRWQIhANlVNmdmo/s9raJXn8XQ7blnlka87Oxfd4Tg
1B4e/oCm
-----END CERTIFICATE-----
