Certificate:
    Data:
        Version: 3 (0x2)
        Serial Number:
            6e:8c:b2:5b:73:2b:5c:c1:d1:7e:3d:c1:e4:ba:7e:f6:08:a2:73:d7
        Signature Algorithm: ecdsa-with-SHA256
        Issuer: CN = sect283k1
        Validity
            Not Before: Dec 22 19:21:48 2019 GMT
            Not After : Nov 28 19:21:48 2119 GMT
        Subject: CN = sect283k1
        Subject Public Key Info:
            Public Key Algorithm: id-ecPublicKey
                Public-Key: (281 bit)
                pub:
                    04:00:d2:be:b7:43:30:52:4f:ef:63:fb:31:2c:94:
                    e6:44:5c:fa:7b:a8:58:43:01:20:38:ae:6e:81:d2:
                    cd:08:ac:8f:5e:15:83:01:6d:dd:3e:b0:71:86:e9:
                    ea:0b:a1:49:7d:47:7d:10:a8:be:0d:3a:bb:e7:03:
                    e0:b1:b8:f8:97:20:4a:98:0e:59:67:49:61
                ASN1 OID: sect283k1
                NIST CURVE: K-283
        X509v3 extensions:
            X509v3 Subject Key Identifier:
                B5:AD:FF:6E:10:3E:A0:1C:36:34:C3:1B:F5:0B:FA:A0:BB:E7:94:2C
            X509v3 Authority Key Identifier:
                keyid:B5:AD:FF:6E:10:3E:A0:1C:36:34:C3:1B:F5:0B:FA:A0:BB:E7:94:2C

            X509v3 Basic Constraints: critical
                CA:TRUE
    Signature Algorithm: ecdsa-with-SHA256
         30:4c:02:24:00:e1:15:d9:32:51:c0:86:d1:d1:4f:34:55:75:
         3c:ad:87:9a:84:93:af:a9:f3:e4:44:7a:12:a3:a8:61:7f:85:
         18:69:87:00:02:24:00:b6:16:3c:4c:1e:41:30:34:d3:90:4f:
         d7:e0:3a:70:98:c9:cf:11:ca:68:04:1e:bf:74:83:70:fb:0d:
         98:81:a6:e9:ab:5c
-----BEGIN CERTIFICATE-----
MIIBizCCASqgAwIBAgIUboyyW3MrXMHRfj3B5Lp+9giic9cwCgYIKoZIzj0EAwIw
FDESMBAGA1UEAwwJc2VjdDI4M2sxMCAXDTE5MTIyMjE5MjE0OFoYDzIxMTkxMTI4
MTkyMTQ4WjAUMRIwEAYDVQQDDAlzZWN0MjgzazEwXjAQBgcqhkjOPQIBBgUrgQQA
EANKAAQA0r63QzBST+9j+zEslOZEXPp7qFhDASA4rm6B0s0IrI9eFYMBbd0+sHGG
6eoLoUl9R30QqL4NOrvnA+CxuPiXIEqYDllnSWGjUzBRMB0GA1UdDgQWBBS1rf9u
ED6gHDY0wxv1C/qgu+eULDAfBgNVHSMEGDAWgBS1rf9uED6gHDY0wxv1C/qgu+eU
LDAPBgNVHRMBAf8EBTADAQH/MAoGCCqGSM49BAMCA08AMEwCJADhFdkyUcCG0dFP
NFV1PK2HmoSTr6nz5ER6EqOoYX+FGGmHAAIkALYWPEweQTA005BP1+A6cJjJzxHK
aAQev3SDcPsNmIGm6atc
-----END CERTIFICATE-----
