Certificate:
    Data:
        Version: 3 (0x2)
        Serial Number:
            4e:fc:ed:8c:4d:10:c2:ba:14:cd:45:fd:51:20:a3:19:eb:f5:0a:c3
        Signature Algorithm: ecdsa-with-SHA256
        Issuer: CN = ECC with compressed point 0x02
        Validity
            Not Before: Dec 30 07:28:49 2019 GMT
            Not After : Dec  6 07:28:49 2119 GMT
        Subject: CN = ECC with compressed point 0x02
        Subject Public Key Info:
            Public Key Algorithm: id-ecPublicKey
                Public-Key: (112 bit)
                pub:
                    02:ba:56:61:b6:b7:67:98:26:0f:31:35:89:01:8c
                ASN1 OID: secp112r1
        X509v3 extensions:
            X509v3 Subject Key Identifier:
                06:47:F4:4E:38:1C:98:58:74:D7:46:0C:6E:E5:A0:0E:BE:E6:AA:DC
            X509v3 Authority Key Identifier:
                keyid:06:47:F4:4E:38:1C:98:58:74:D7:46:0C:6E:E5:A0:0E:BE:E6:AA:DC

            X509v3 Basic Constraints: critical
                CA:TRUE
    Signature Algorithm: ecdsa-with-SHA256
         30:21:02:0e:3d:7f:20:c7:4c:93:21:99:c9:1d:f8:5a:b3:0d:
         02:0f:00:cd:34:35:e6:11:9e:04:f7:f4:18:c9:c3:46:70
-----BEGIN CERTIFICATE-----
MIIBUDCCARqgAwIBAgIUTvztjE0QwroUzUX9USCjGev1CsMwCgYIKoZIzj0EAwIw
KTEnMCUGA1UEAwweRUNDIHdpdGggY29tcHJlc3NlZCBwb2ludCAweDAyMCAXDTE5
MTIzMDA3Mjg0OVoYDzIxMTkxMjA2MDcyODQ5WjApMScwJQYDVQQDDB5FQ0Mgd2l0
aCBjb21wcmVzc2VkIHBvaW50IDB4MDIwJDAQBgcqhkjOPQIBBgUrgQQABgMQAAK6
VmG2t2eYJg8xNYkBjKNTMFEwHQYDVR0OBBYEFAZH9E44HJhYdNdGDG7loA6+5qrc
MB8GA1UdIwQYMBaAFAZH9E44HJhYdNdGDG7loA6+5qrcMA8GA1UdEwEB/wQFMAMB
Af8wCgYIKoZIzj0EAwIDJAAwIQIOPX8gx0yTIZnJHfhasw0CDwDNNDXmEZ4E9/QY
ycNGcA==
-----END CERTIFICATE-----
