Certificate:
    Data:
        Version: 3 (0x2)
        Serial Number:
            06:c1:7f:56:d7:bb:9d:58:6b:60:12:16:ee:4c:87:5c:5f:ee:8e:98
        Signature Algorithm: ecdsa-with-SHA256
        Issuer: CN = Explicit domain parameters (secp112r1 with different G)
        Validity
            Not Before: Dec 29 19:47:34 2019 GMT
            Not After : Dec  5 19:47:34 2119 GMT
        Subject: CN = Explicit domain parameters (secp112r1 with different G)
        Subject Public Key Info:
            Public Key Algorithm: id-ecPublicKey
                Public-Key: (112 bit)
                pub:
                    04:0f:de:a8:56:41:df:48:6a:00:fe:bb:8f:31:b6:
                    5b:0c:15:06:53:a4:80:24:3e:b0:30:69:ec:fb
                Field Type: prime-field
                Prime:
                    00:db:7c:2a:bf:62:e3:5e:66:80:76:be:ad:20:8b
                A:
                    00:db:7c:2a:bf:62:e3:5e:66:80:76:be:ad:20:88
                B:
                    65:9e:f8:ba:04:39:16:ee:de:89:11:70:2b:22
                Generator (uncompressed):
                    04:a5:e4:cc:91:25:ce:d0:0c:b9:2c:9e:db:4b:72:
                    2f:63:69:9a:22:23:4d:e4:d4:2b:c1:a9:e0:47
                Order:
                    00:db:7c:2a:bf:62:e3:5e:76:28:df:ac:65:61:c5
                Cofactor:  1 (0x1)
                Seed:
                    00:f5:0b:02:8e:4d:69:6e:67:68:75:61:51:75:29:
                    04:72:78:3f:b1
        X509v3 extensions:
            X509v3 Subject Key Identifier:
                08:B9:2A:DE:E7:F0:B0:81:ED:4F:EA:75:CE:61:14:F3:EB:41:05:82
            X509v3 Authority Key Identifier:
                keyid:08:B9:2A:DE:E7:F0:B0:81:ED:4F:EA:75:CE:61:14:F3:EB:41:05:82

            X509v3 Basic Constraints: critical
                CA:TRUE
    Signature Algorithm: ecdsa-with-SHA256
         30:20:02:0e:32:ad:d4:2a:f0:fa:7e:fb:4b:4e:41:b4:18:a4:
         02:0e:09:64:a5:19:4f:54:a2:bd:ea:c7:5d:6c:9f:5e
-----BEGIN CERTIFICATE-----
MIICGDCCAeOgAwIBAgIUBsF/Vte7nVhrYBIW7kyHXF/ujpgwCgYIKoZIzj0EAwIw
QjFAMD4GA1UEAww3RXhwbGljaXQgZG9tYWluIHBhcmFtZXRlcnMgKHNlY3AxMTJy
MSB3aXRoIGRpZmZlcmVudCBHKTAgFw0xOTEyMjkxOTQ3MzRaGA8yMTE5MTIwNTE5
NDczNFowQjFAMD4GA1UEAww3RXhwbGljaXQgZG9tYWluIHBhcmFtZXRlcnMgKHNl
Y3AxMTJyMSB3aXRoIGRpZmZlcmVudCBHKTCBujCBlwYHKoZIzj0CATCBiwIBATAa
BgcqhkjOPQEBAg8A23wqv2LjXmaAdr6tIIswNwQO23wqv2LjXmaAdr6tIIgEDmWe
+LoEORbu3okRcCsiAxUAAPULAo5NaW5naHVhUXUpBHJ4P7EEHQSl5MyRJc7QDLks
nttLci9jaZoiI03k1CvBqeBHAg8A23wqv2LjXnYo36xlYcUCAQEDHgAED96oVkHf
SGoA/ruPMbZbDBUGU6SAJD6wMGns+6NTMFEwHQYDVR0OBBYEFAi5Kt7n8LCB7U/q
dc5hFPPrQQWCMB8GA1UdIwQYMBaAFAi5Kt7n8LCB7U/qdc5hFPPrQQWCMA8GA1Ud
EwEB/wQFMAMBAf8wCgYIKoZIzj0EAwIDIwAwIAIOMq3UKvD6fvtLTkG0GKQCDglk
pRlPVKK96sddbJ9e
-----END CERTIFICATE-----
