Certificate:
    Data:
        Version: 1 (0x0)
        Serial Number: 1 (0x1)
        Signature Algorithm: ecdsa-with-SHA256
        Issuer: CN = Root CA
        Validity
            Not Before: Aug 19 20:39:24 2018 GMT
            Not After : Aug 19 20:39:24 2019 GMT
        Subject: CN = New Cert
        Subject Public Key Info:
            Public Key Algorithm: id-ecPublicKey
                Public-Key: (384 bit)
                pub:
                    04:76:2d:be:d4:75:b9:ad:88:02:18:f1:6c:5d:1e:
                    80:bf:a9:24:71:91:bb:c5:1b:e4:03:4d:d1:ed:cc:
                    04:e8:56:2d:84:77:45:2d:ad:fa:e2:b1:17:e4:19:
                    7a:8b:45:53:5b:07:34:1d:66:3e:ff:45:39:da:ab:
                    6b:ab:85:9d:5e:b1:ed:de:9b:68:e6:5d:81:bf:b5:
                    8e:62:63:be:a4:a5:8a:5d:ee:14:91:81:73:d4:4a:
                    46:01:99:c5:15:34:49
                ASN1 OID: secp384r1
                NIST CURVE: P-384
    Signature Algorithm: ecdsa-with-SHA256
         30:65:02:30:56:c3:ab:82:d0:ee:d0:77:f4:5a:60:d8:a8:b8:
         6a:aa:1b:3f:43:c6:32:23:bc:b7:2a:dd:a3:82:56:a8:ea:fe:
         45:1e:43:de:5a:ef:52:71:b8:43:17:62:6f:bd:82:9d:02:31:
         00:90:cb:7d:5b:d2:0c:29:ec:6e:b3:68:5e:03:43:00:13:f6:
         01:b9:ad:aa:28:62:cd:56:5c:e8:e0:93:a0:bf:ea:fa:10:21:
         bc:d9:96:3a:b2:48:83:74:2c:b1:b2:5d:5f
-----BEGIN CERTIFICATE-----
MIIBSTCB0AIBATAKBggqhkjOPQQDAjASMRAwDgYDVQQDDAdSb290IENBMB4XDTE4
MDgxOTIwMzkyNFoXDTE5MDgxOTIwMzkyNFowEzERMA8GA1UEAwwITmV3IENlcnQw
djAQBgcqhkjOPQIBBgUrgQQAIgNiAAR2Lb7UdbmtiAIY8WxdHoC/qSRxkbvFG+QD
TdHtzAToVi2Ed0UtrfrisRfkGXqLRVNbBzQdZj7/RTnaq2urhZ1ese3em2jmXYG/
tY5iY76kpYpd7hSRgXPUSkYBmcUVNEkwCgYIKoZIzj0EAwIDaAAwZQIwVsOrgtDu
0Hf0WmDYqLhqqhs/Q8YyI7y3Kt2jglao6v5FHkPeWu9ScbhDF2JvvYKdAjEAkMt9
W9IMKexus2heA0MAE/YBua2qKGLNVlzo4JOgv+r6ECG82ZY6skiDdCyxsl1f
-----END CERTIFICATE-----
