Certificate:
    Data:
        Version: 3 (0x2)
        Serial Number:
            09:91:25:db:5d:7c:72:9a:d7:d9:c7:e1:63:0e:33:d9:e3:0d:1c:d0
        Signature Algorithm: ED448
        Issuer: CN = EdDSA Ed448 Cert
        Validity
            Not Before: Aug 19 09:06:23 2018 GMT
            Not After : Aug 24 09:06:23 2018 GMT
        Subject: CN = EdDSA Ed448 Cert
        Subject Public Key Info:
            Public Key Algorithm: ED448
                ED448 Public-Key:
                pub:
                    fa:c3:71:2e:7b:b2:87:84:8f:97:a2:b4:62:dc:2f:
                    07:b1:08:25:d3:00:e9:30:64:16:f9:4a:e6:29:c9:
                    15:87:d6:68:15:fc:99:44:9f:2d:44:e9:06:99:2f:
                    0f:c6:34:8b:67:22:83:ed:98:27:d3:80
        X509v3 extensions:
            X509v3 Subject Key Identifier:
                CD:F4:E0:80:CF:5D:EA:11:FD:C0:BE:0B:A9:F9:CB:67:7A:D6:3C:E1
            X509v3 Authority Key Identifier:
                keyid:CD:F4:E0:80:CF:5D:EA:11:FD:C0:BE:0B:A9:F9:CB:67:7A:D6:3C:E1

            X509v3 Basic Constraints: critical
                CA:TRUE
    Signature Algorithm: ED448
         52:5a:cd:9b:42:79:bc:68:1a:2f:c2:6a:6a:08:f1:41:35:94:
         7a:ad:60:d0:d2:00:31:f1:65:db:ca:a0:7a:f8:31:f5:6a:cb:
         eb:87:bc:a4:54:88:5c:14:cd:48:6a:46:03:ad:d4:8d:f6:a4:
         ba:76:00:7d:e5:c5:8e:16:7c:ea:73:80:1f:0f:0c:64:61:86:
         17:e0:ee:02:01:22:16:62:d3:86:95:83:aa:6b:9c:2c:4c:83:
         cf:15:de:ea:3b:24:83:34:19:f1:86:f4:00:07:a4:a3:12:d8:
         bb:28:35:76:1f:00
-----BEGIN CERTIFICATE-----
MIIBljCCARagAwIBAgIUCZEl2118cprX2cfhYw4z2eMNHNAwBQYDK2VxMBsxGTAX
BgNVBAMMEEVkRFNBIEVkNDQ4IENlcnQwHhcNMTgwODE5MDkwNjIzWhcNMTgwODI0
MDkwNjIzWjAbMRkwFwYDVQQDDBBFZERTQSBFZDQ0OCBDZXJ0MEMwBQYDK2VxAzoA
+sNxLnuyh4SPl6K0YtwvB7EIJdMA6TBkFvlK5inJFYfWaBX8mUSfLUTpBpkvD8Y0
i2cig+2YJ9OAo1MwUTAdBgNVHQ4EFgQUzfTggM9d6hH9wL4LqfnLZ3rWPOEwHwYD
VR0jBBgwFoAUzfTggM9d6hH9wL4LqfnLZ3rWPOEwDwYDVR0TAQH/BAUwAwEB/zAF
BgMrZXEDcwBSWs2bQnm8aBovwmpqCPFBNZR6rWDQ0gAx8WXbyqB6+DH1asvrh7yk
VIhcFM1IakYDrdSN9qS6dgB95cWOFnzqc4AfDwxkYYYX4O4CASIWYtOGlYOqa5ws
TIPPFd7qOySDNBnxhvQAB6SjEti7KDV2HwA=
-----END CERTIFICATE-----
