Certificate:
    Data:
        Version: 3 (0x2)
        Serial Number:
            78:5f:1b:d6:b2:35:d5:22:0e:fd:81:c5:56:85:11:65:b0:0f:19:a4
        Signature Algorithm: rsassaPss
         Hash Algorithm: sha1 (default)
         Mask Algorithm: mgf1 with sha1 (default)
          Salt Length: 0x14 (default)
         Trailer Field: 0xBC (default)
        Issuer: CN = RSA-PSS Test Cert RSA-2048 Defaults
        Validity
            Not Before: Aug 22 19:11:24 2018 GMT
            Not After : Sep 21 19:11:24 2018 GMT
        Subject: CN = RSA-PSS Test Cert RSA-2048 Defaults
        Subject Public Key Info:
            Public Key Algorithm: rsaEncryption
                RSA Public-Key: (2048 bit)
                Modulus:
                    00:ac:05:34:f3:20:aa:ce:db:2f:65:1b:5a:c9:63:
                    d1:bd:5c:78:b8:bc:cf:69:56:f3:75:ac:43:80:0a:
                    e2:0b:0e:df:95:00:2a:43:b6:f2:fb:88:36:d5:c1:
                    b6:1c:5b:b8:dc:1f:62:83:09:38:c6:db:1b:d9:d9:
                    22:f4:7e:63:dc:4d:76:6f:d5:3e:be:29:43:fa:25:
                    c2:da:fc:c3:c7:53:11:14:5c:a8:80:02:8c:2c:ce:
                    d7:4e:e3:0f:9d:8a:63:7e:49:9b:66:28:8a:90:88:
                    b9:51:9b:24:e5:7e:a0:db:7a:57:ca:07:89:cf:4f:
                    96:3e:be:0a:8b:91:6b:87:be:5a:d7:b6:65:51:f9:
                    87:08:1f:8e:b4:b3:c5:fd:d6:6d:45:1c:19:6f:8a:
                    4f:f0:7b:c7:94:b3:dd:14:61:f4:7e:af:6f:d0:5c:
                    a2:cf:fb:12:94:b6:02:6a:ec:d4:c7:09:88:ab:2f:
                    83:77:c2:5b:e3:b7:ee:5e:98:e8:86:60:02:0d:38:
                    bc:60:d0:10:a8:f1:ee:7b:90:07:5c:d7:3c:48:13:
                    1c:5c:72:54:a4:8b:c1:97:dd:19:d0:08:73:54:2f:
                    3e:2c:b7:12:d4:e0:c6:15:8c:a8:88:1c:92:6d:82:
                    4c:38:e5:ba:ab:72:06:0f:a2:fb:6b:7a:07:8f:e1:
                    ad:6b
                Exponent: 65537 (0x10001)
        X509v3 extensions:
            X509v3 Subject Key Identifier:
                EA:D8:DE:A9:81:E7:31:82:4E:63:20:98:FE:E4:57:F7:99:B3:23:4B
            X509v3 Authority Key Identifier:
                keyid:EA:D8:DE:A9:81:E7:31:82:4E:63:20:98:FE:E4:57:F7:99:B3:23:4B

            X509v3 Basic Constraints:
                CA:TRUE
    Signature Algorithm: rsassaPss
         Hash Algorithm: sha1 (default)
         Mask Algorithm: mgf1 with sha1 (default)
          Salt Length: 0x14 (default)
         Trailer Field: 0xBC (default)

         4c:43:dd:aa:73:03:d4:33:4c:d6:21:cb:4b:4d:3d:a0:eb:33:
         74:69:b1:59:98:b1:f1:52:10:82:db:9e:74:34:06:5d:0f:3e:
         ec:bb:f1:84:95:af:2a:17:d7:c5:fe:56:b3:cd:8d:97:4f:f0:
         1c:51:48:97:ed:5c:57:49:15:d8:d0:f1:01:2c:3e:83:fa:8d:
         e0:86:33:d9:cb:dd:b1:6c:a7:f5:a6:7f:02:84:94:f5:fb:55:
         0e:6b:08:de:f2:ee:1a:97:14:b6:13:88:49:24:60:48:f7:ad:
         ba:a8:39:73:fc:49:fd:ab:72:5e:1e:0b:23:04:fa:41:b1:e1:
         a9:53:09:7d:5f:ca:58:73:b2:e8:d3:de:08:a1:9b:24:dc:c1:
         1f:53:71:3b:a5:97:ca:c2:e0:a0:d6:a0:cf:db:05:d2:04:53:
         bc:08:d4:22:1e:63:e6:0d:30:a0:97:1f:6d:08:7c:c7:d1:18:
         7b:5a:00:cb:b9:20:7f:fe:4c:bc:62:3f:2d:9e:db:35:1b:17:
         fe:51:80:24:25:da:b5:e6:24:4a:9d:7d:e2:55:4e:d7:26:61:
         0d:1f:ad:29:b3:2b:fe:b6:86:fe:75:e0:e1:e5:c4:22:dc:0b:
         b4:87:5e:db:cd:40:71:c2:83:a5:f1:c3:bd:4d:e8:48:b1:bd:
         20:00:c6:fb
-----BEGIN CERTIFICATE-----
MIIDOjCCAiKgAwIBAgIUeF8b1rI11SIO/YHFVoURZbAPGaQwDQYJKoZIhvcNAQEK
MAAwLjEsMCoGA1UEAwwjUlNBLVBTUyBUZXN0IENlcnQgUlNBLTIwNDggRGVmYXVs
dHMwHhcNMTgwODIyMTkxMTI0WhcNMTgwOTIxMTkxMTI0WjAuMSwwKgYDVQQDDCNS
U0EtUFNTIFRlc3QgQ2VydCBSU0EtMjA0OCBEZWZhdWx0czCCASIwDQYJKoZIhvcN
AQEBBQADggEPADCCAQoCggEBAKwFNPMgqs7bL2UbWslj0b1ceLi8z2lW83WsQ4AK
4gsO35UAKkO28vuINtXBthxbuNwfYoMJOMbbG9nZIvR+Y9xNdm/VPr4pQ/olwtr8
w8dTERRcqIACjCzO107jD52KY35Jm2YoipCIuVGbJOV+oNt6V8oHic9Plj6+CouR
a4e+Wte2ZVH5hwgfjrSzxf3WbUUcGW+KT/B7x5Sz3RRh9H6vb9Bcos/7EpS2Amrs
1McJiKsvg3fCW+O37l6Y6IZgAg04vGDQEKjx7nuQB1zXPEgTHFxyVKSLwZfdGdAI
c1QvPiy3EtTgxhWMqIgckm2CTDjluqtyBg+i+2t6B4/hrWsCAwEAAaNQME4wHQYD
VR0OBBYEFOrY3qmB5zGCTmMgmP7kV/eZsyNLMB8GA1UdIwQYMBaAFOrY3qmB5zGC
TmMgmP7kV/eZsyNLMAwGA1UdEwQFMAMBAf8wDQYJKoZIhvcNAQEKMAADggEBAExD
3apzA9QzTNYhy0tNPaDrM3RpsVmYsfFSEILbnnQ0Bl0PPuy78YSVryoX18X+VrPN
jZdP8BxRSJftXFdJFdjQ8QEsPoP6jeCGM9nL3bFsp/WmfwKElPX7VQ5rCN7y7hqX
FLYTiEkkYEj3rbqoOXP8Sf2rcl4eCyME+kGx4alTCX1fylhzsujT3gihmyTcwR9T
cTull8rC4KDWoM/bBdIEU7wI1CIeY+YNMKCXH20IfMfRGHtaAMu5IH/+TLxiPy2e
2zUbF/5RgCQl2rXmJEqdfeJVTtcmYQ0frSmzK/62hv514OHlxCLcC7SHXtvNQHHC
g6Xxw71N6EixvSAAxvs=
-----END CERTIFICATE-----
