Certificate:
    Data:
        Version: 3 (0x2)
        Serial Number:
            36:f1:f9:72:4d:50:6c:ee:fc:79:d5:a3:08:20:3f:3c:78:c0:17:21
        Signature Algorithm: rsassaPss
         Hash Algorithm: sha256
         Mask Algorithm: mgf1 with sha256
          Salt Length: 0x20
         Trailer Field: 0xBC (default)
        Issuer: CN = RSA-PSS Test Cert RSA-2048 SHA256 32 bytes salt
        Validity
            Not Before: Aug 22 19:10:17 2018 GMT
            Not After : Sep 21 19:10:17 2018 GMT
        Subject: CN = RSA-PSS Test Cert RSA-2048 SHA256 32 bytes salt
        Subject Public Key Info:
            Public Key Algorithm: rsaEncryption
                RSA Public-Key: (2048 bit)
                Modulus:
                    00:ac:05:34:f3:20:aa:ce:db:2f:65:1b:5a:c9:63:
                    d1:bd:5c:78:b8:bc:cf:69:56:f3:75:ac:43:80:0a:
                    e2:0b:0e:df:95:00:2a:43:b6:f2:fb:88:36:d5:c1:
                    b6:1c:5b:b8:dc:1f:62:83:09:38:c6:db:1b:d9:d9:
                    22:f4:7e:63:dc:4d:76:6f:d5:3e:be:29:43:fa:25:
                    c2:da:fc:c3:c7:53:11:14:5c:a8:80:02:8c:2c:ce:
                    d7:4e:e3:0f:9d:8a:63:7e:49:9b:66:28:8a:90:88:
                    b9:51:9b:24:e5:7e:a0:db:7a:57:ca:07:89:cf:4f:
                    96:3e:be:0a:8b:91:6b:87:be:5a:d7:b6:65:51:f9:
                    87:08:1f:8e:b4:b3:c5:fd:d6:6d:45:1c:19:6f:8a:
                    4f:f0:7b:c7:94:b3:dd:14:61:f4:7e:af:6f:d0:5c:
                    a2:cf:fb:12:94:b6:02:6a:ec:d4:c7:09:88:ab:2f:
                    83:77:c2:5b:e3:b7:ee:5e:98:e8:86:60:02:0d:38:
                    bc:60:d0:10:a8:f1:ee:7b:90:07:5c:d7:3c:48:13:
                    1c:5c:72:54:a4:8b:c1:97:dd:19:d0:08:73:54:2f:
                    3e:2c:b7:12:d4:e0:c6:15:8c:a8:88:1c:92:6d:82:
                    4c:38:e5:ba:ab:72:06:0f:a2:fb:6b:7a:07:8f:e1:
                    ad:6b
                Exponent: 65537 (0x10001)
        X509v3 extensions:
            X509v3 Subject Key Identifier:
                EA:D8:DE:A9:81:E7:31:82:4E:63:20:98:FE:E4:57:F7:99:B3:23:4B
            X509v3 Authority Key Identifier:
                keyid:EA:D8:DE:A9:81:E7:31:82:4E:63:20:98:FE:E4:57:F7:99:B3:23:4B

            X509v3 Basic Constraints:
                CA:TRUE
    Signature Algorithm: rsassaPss
         Hash Algorithm: sha256
         Mask Algorithm: mgf1 with sha256
          Salt Length: 0x20
         Trailer Field: 0xBC (default)

         55:16:2e:c2:bd:4b:53:50:89:ae:93:8f:26:b9:08:8c:57:0d:
         16:73:49:0d:ac:86:c3:ba:b3:bb:e2:48:17:71:b4:2f:32:1c:
         99:71:3b:61:8e:26:c1:6e:56:cf:5b:6f:f0:14:6a:f7:f7:1a:
         b0:60:e7:af:77:eb:40:16:46:31:1f:f5:7f:f9:c6:bb:05:eb:
         ad:dc:ff:58:b0:1f:f5:4d:f2:fd:e6:ec:7b:7c:75:3a:d0:03:
         0f:55:ef:2f:6a:86:96:d6:15:5e:f1:c2:45:7b:25:a6:8a:ad:
         fc:bb:10:0d:50:3a:70:f1:f6:c6:4c:16:28:f6:e7:57:a6:1b:
         0a:33:98:31:f4:ae:9e:88:ef:d4:9a:e9:94:cd:ee:84:f5:68:
         06:ca:d8:aa:31:b7:d1:1f:62:9e:89:3e:83:59:50:b8:3b:d3:
         b2:ac:11:e0:b4:42:74:fb:ed:16:98:32:d8:ef:45:70:60:b0:
         e8:5e:ce:f1:a0:da:25:01:7a:a7:30:2e:8e:57:2e:56:1f:a7:
         9e:62:b3:10:1a:7a:c0:ed:11:16:20:3d:14:fc:ef:5e:2d:3b:
         b9:cf:66:65:2e:9b:52:f9:d8:4a:4e:0d:b7:cd:1e:76:8f:73:
         c5:d4:57:94:2b:ba:d7:f7:9e:ac:ad:ab:5b:d6:45:ee:1d:39:
         06:55:aa:f0
-----BEGIN CERTIFICATE-----
MIIDsjCCAmqgAwIBAgIUNvH5ck1QbO78edWjCCA/PHjAFyEwPQYJKoZIhvcNAQEK
MDCgDTALBglghkgBZQMEAgGhGjAYBgkqhkiG9w0BAQgwCwYJYIZIAWUDBAIBogMC
ASAwOjE4MDYGA1UEAwwvUlNBLVBTUyBUZXN0IENlcnQgUlNBLTIwNDggU0hBMjU2
IDMyIGJ5dGVzIHNhbHQwHhcNMTgwODIyMTkxMDE3WhcNMTgwOTIxMTkxMDE3WjA6
MTgwNgYDVQQDDC9SU0EtUFNTIFRlc3QgQ2VydCBSU0EtMjA0OCBTSEEyNTYgMzIg
Ynl0ZXMgc2FsdDCCASIwDQYJKoZIhvcNAQEBBQADggEPADCCAQoCggEBAKwFNPMg
qs7bL2UbWslj0b1ceLi8z2lW83WsQ4AK4gsO35UAKkO28vuINtXBthxbuNwfYoMJ
OMbbG9nZIvR+Y9xNdm/VPr4pQ/olwtr8w8dTERRcqIACjCzO107jD52KY35Jm2Yo
ipCIuVGbJOV+oNt6V8oHic9Plj6+CouRa4e+Wte2ZVH5hwgfjrSzxf3WbUUcGW+K
T/B7x5Sz3RRh9H6vb9Bcos/7EpS2Amrs1McJiKsvg3fCW+O37l6Y6IZgAg04vGDQ
EKjx7nuQB1zXPEgTHFxyVKSLwZfdGdAIc1QvPiy3EtTgxhWMqIgckm2CTDjluqty
Bg+i+2t6B4/hrWsCAwEAAaNQME4wHQYDVR0OBBYEFOrY3qmB5zGCTmMgmP7kV/eZ
syNLMB8GA1UdIwQYMBaAFOrY3qmB5zGCTmMgmP7kV/eZsyNLMAwGA1UdEwQFMAMB
Af8wPQYJKoZIhvcNAQEKMDCgDTALBglghkgBZQMEAgGhGjAYBgkqhkiG9w0BAQgw
CwYJYIZIAWUDBAIBogMCASADggEBAFUWLsK9S1NQia6Tjya5CIxXDRZzSQ2shsO6
s7viSBdxtC8yHJlxO2GOJsFuVs9bb/AUavf3GrBg569360AWRjEf9X/5xrsF663c
/1iwH/VN8v3m7Ht8dTrQAw9V7y9qhpbWFV7xwkV7JaaKrfy7EA1QOnDx9sZMFij2
51emGwozmDH0rp6I79Sa6ZTN7oT1aAbK2Koxt9EfYp6JPoNZULg707KsEeC0QnT7
7RaYMtjvRXBgsOhezvGg2iUBeqcwLo5XLlYfp55isxAaesDtERYgPRT8714tO7nP
ZmUum1L52EpODbfNHnaPc8XUV5Qrutf3nqytq1vWRe4dOQZVqvA=
-----END CERTIFICATE-----
