Certificate:
    Data:
        Version: 3 (0x2)
        Serial Number:
            28:1a:d6:fd:b4:90:53:3f:2d:1d:e6:3f:39:49:db:e9:c8:2b:3a:aa
        Signature Algorithm: ecdsa-with-SHA256
        Issuer: CN = X.509 GeneralName SAN_name with mode: uri_uncommon_scheme
        Validity
            Not Before: Jan  4 09:44:46 2020 GMT
            Not After : Dec 11 09:44:46 2119 GMT
        Subject: CN = X.509 GeneralName SAN_name with mode: uri_uncommon_scheme, 1.13.99.127.41 = X509Cert_Body_X509Exts_Ext_SAN_Name_URI_UncommonURIScheme
        Subject Public Key Info:
            Public Key Algorithm: id-ecPublicKey
                Public-Key: (112 bit)
                pub:
                    04:2f:d7:ed:b4:8b:0e:82:40:06:07:c5:c4:ab:25:
                    d7:27:d3:54:05:a1:9b:f0:51:23:08:fe:af:96
                ASN1 OID: secp112r1
        X509v3 extensions:
            X509v3 Subject Alternative Name:
                URI:murks://foobar.com
    Signature Algorithm: ecdsa-with-SHA256
         30:21:02:0f:00:97:79:29:82:f3:dc:33:8a:4a:bb:e6:fc:7e:
         4f:02:0e:7e:76:9b:eb:2c:82:63:ab:5f:10:6d:95:10:bb
-----BEGIN CERTIFICATE-----
MIIBqDCCAXKgAwIBAgIUKBrW/bSQUz8tHeY/OUnb6cgrOqowCgYIKoZIzj0EAwIw
RDFCMEAGA1UEAww5WC41MDkgR2VuZXJhbE5hbWUgU0FOX25hbWUgd2l0aCBtb2Rl
OiB1cmlfdW5jb21tb25fc2NoZW1lMCAXDTIwMDEwNDA5NDQ0NloYDzIxMTkxMjEx
MDk0NDQ2WjCBiTFCMEAGA1UEAww5WC41MDkgR2VuZXJhbE5hbWUgU0FOX25hbWUg
d2l0aCBtb2RlOiB1cmlfdW5jb21tb25fc2NoZW1lMUMwQQYENWN/KQw5WDUwOUNl
cnRfQm9keV9YNTA5RXh0c19FeHRfU0FOX05hbWVfVVJJX1VuY29tbW9uVVJJU2No
ZW1lMDIwEAYHKoZIzj0CAQYFK4EEAAYDHgAEL9fttIsOgkAGB8XEqyXXJ9NUBaGb
8FEjCP6vlqMhMB8wHQYDVR0RBBYwFIYSbXVya3M6Ly9mb29iYXIuY29tMAoGCCqG
SM49BAMCAyQAMCECDwCXeSmC89wzikq75vx+TwIOfnab6yyCY6tfEG2VELs=
-----END CERTIFICATE-----
