Certificate:
    Data:
        Version: 3 (0x2)
        Serial Number:
            28:1a:d6:fd:b4:90:53:3f:2d:1d:e6:3f:39:49:db:e9:c8:2b:3a:aa
        Signature Algorithm: ecdsa-with-SHA256
        Issuer: CN = X.509 GeneralName IAN_name with mode: dns_ok
        Validity
            Not Before: Jan  4 09:44:46 2020 GMT
            Not After : Dec 11 09:44:46 2119 GMT
        Subject: CN = X.509 GeneralName IAN_name with mode: dns_ok, 1.13.99.127.41 = X509Cert_Body_X509Exts_Ext_IAN_Name_DNS_Unexpected
        Subject Public Key Info:
            Public Key Algorithm: id-ecPublicKey
                Public-Key: (112 bit)
                pub:
                    04:2f:d7:ed:b4:8b:0e:82:40:06:07:c5:c4:ab:25:
                    d7:27:d3:54:05:a1:9b:f0:51:23:08:fe:af:96
                ASN1 OID: secp112r1
        X509v3 extensions:
            X509v3 Issuer Alternative Name:
                DNS:foobar.com
    Signature Algorithm: ecdsa-with-SHA256
         30:21:02:0f:00:97:79:29:82:f3:dc:33:8a:4a:bb:e6:fc:7e:
         4f:02:0e:7e:76:9b:eb:2c:82:63:ab:5f:10:6d:95:10:bb
-----BEGIN CERTIFICATE-----
MIIBfjCCAUigAwIBAgIUKBrW/bSQUz8tHeY/OUnb6cgrOqowCgYIKoZIzj0EAwIw
NzE1MDMGA1UEAwwsWC41MDkgR2VuZXJhbE5hbWUgSUFOX25hbWUgd2l0aCBtb2Rl
OiBkbnNfb2swIBcNMjAwMTA0MDk0NDQ2WhgPMjExOTEyMTEwOTQ0NDZaMHUxNTAz
BgNVBAMMLFguNTA5IEdlbmVyYWxOYW1lIElBTl9uYW1lIHdpdGggbW9kZTogZG5z
X29rMTwwOgYENWN/KQwyWDUwOUNlcnRfQm9keV9YNTA5RXh0c19FeHRfSUFOX05h
bWVfRE5TX1VuZXhwZWN0ZWQwMjAQBgcqhkjOPQIBBgUrgQQABgMeAAQv1+20iw6C
QAYHxcSrJdcn01QFoZvwUSMI/q+WoxkwFzAVBgNVHRIEDjAMggpmb29iYXIuY29t
MAoGCCqGSM49BAMCAyQAMCECDwCXeSmC89wzikq75vx+TwIOfnab6yyCY6tfEG2V
ELs=
-----END CERTIFICATE-----
