Certificate:
    Data:
        Version: 3 (0x2)
        Serial Number:
            28:1a:d6:fd:b4:90:53:3f:2d:1d:e6:3f:39:49:db:e9:c8:2b:3a:aa
        Signature Algorithm: ecdsa-with-SHA256
        Issuer: CN = X.509 GeneralName IAN_name with mode: dns_whitespace
        Validity
            Not Before: Jan  4 09:44:46 2020 GMT
            Not After : Dec 11 09:44:46 2119 GMT
        Subject: CN = X.509 GeneralName IAN_name with mode: dns_whitespace, 1.13.99.127.41 = X509Cert_Body_X509Exts_Ext_IAN_Name_DNS_OnlyWhitespace
        Subject Public Key Info:
            Public Key Algorithm: id-ecPublicKey
                Public-Key: (112 bit)
                pub:
                    04:2f:d7:ed:b4:8b:0e:82:40:06:07:c5:c4:ab:25:
                    d7:27:d3:54:05:a1:9b:f0:51:23:08:fe:af:96
                ASN1 OID: secp112r1
        X509v3 extensions:
            X509v3 Issuer Alternative Name:
                DNS:
    Signature Algorithm: ecdsa-with-SHA256
         30:21:02:0f:00:97:79:29:82:f3:dc:33:8a:4a:bb:e6:fc:7e:
         4f:02:0e:7e:76:9b:eb:2c:82:63:ab:5f:10:6d:95:10:bb
-----BEGIN CERTIFICATE-----
MIIBijCCAVSgAwIBAgIUKBrW/bSQUz8tHeY/OUnb6cgrOqowCgYIKoZIzj0EAwIw
PzE9MDsGA1UEAww0WC41MDkgR2VuZXJhbE5hbWUgSUFOX25hbWUgd2l0aCBtb2Rl
OiBkbnNfd2hpdGVzcGFjZTAgFw0yMDAxMDQwOTQ0NDZaGA8yMTE5MTIxMTA5NDQ0
NlowgYExPTA7BgNVBAMMNFguNTA5IEdlbmVyYWxOYW1lIElBTl9uYW1lIHdpdGgg
bW9kZTogZG5zX3doaXRlc3BhY2UxQDA+BgQ1Y38pDDZYNTA5Q2VydF9Cb2R5X1g1
MDlFeHRzX0V4dF9JQU5fTmFtZV9ETlNfT25seVdoaXRlc3BhY2UwMjAQBgcqhkjO
PQIBBgUrgQQABgMeAAQv1+20iw6CQAYHxcSrJdcn01QFoZvwUSMI/q+WoxAwDjAM
BgNVHRIEBTADggEgMAoGCCqGSM49BAMCAyQAMCECDwCXeSmC89wzikq75vx+TwIO
fnab6yyCY6tfEG2VELs=
-----END CERTIFICATE-----
