Certificate:
    Data:
        Version: 3 (0x2)
        Serial Number:
            28:1a:d6:fd:b4:90:53:3f:2d:1d:e6:3f:39:49:db:e9:c8:2b:3a:aa
        Signature Algorithm: ecdsa-with-SHA256
        Issuer: CN = X.509 GeneralName CRLDP_issuer with mode: ipv6_private
        Validity
            Not Before: Jan  4 09:44:46 2020 GMT
            Not After : Dec 11 09:44:46 2119 GMT
        Subject: CN = X.509 GeneralName CRLDP_issuer with mode: ipv6_private, 1.13.99.127.41 = X509Cert_Body_X509Exts_Ext_CRLDP_CRLIssuer_IPAddress_PrivateAddressSpace
        Subject Public Key Info:
            Public Key Algorithm: id-ecPublicKey
                Public-Key: (112 bit)
                pub:
                    04:2f:d7:ed:b4:8b:0e:82:40:06:07:c5:c4:ab:25:
                    d7:27:d3:54:05:a1:9b:f0:51:23:08:fe:af:96
                ASN1 OID: secp112r1
        X509v3 extensions:
            X509v3 CRL Distribution Points:

                CRL Issuer:
                  IP Address:FD43:2894:8320:9487:2307:4938:2674:8932


    Signature Algorithm: ecdsa-with-SHA256
         30:21:02:0f:00:97:79:29:82:f3:dc:33:8a:4a:bb:e6:fc:7e:
         4f:02:0e:7e:76:9b:eb:2c:82:63:ab:5f:10:6d:95:10:bb
-----BEGIN CERTIFICATE-----
MIIBtTCCAX+gAwIBAgIUKBrW/bSQUz8tHeY/OUnb6cgrOqowCgYIKoZIzj0EAwIw
QTE/MD0GA1UEAww2WC41MDkgR2VuZXJhbE5hbWUgQ1JMRFBfaXNzdWVyIHdpdGgg
bW9kZTogaXB2Nl9wcml2YXRlMCAXDTIwMDEwNDA5NDQ0NloYDzIxMTkxMjExMDk0
NDQ2WjCBlTE/MD0GA1UEAww2WC41MDkgR2VuZXJhbE5hbWUgQ1JMRFBfaXNzdWVy
IHdpdGggbW9kZTogaXB2Nl9wcml2YXRlMVIwUAYENWN/KQxIWDUwOUNlcnRfQm9k
eV9YNTA5RXh0c19FeHRfQ1JMRFBfQ1JMSXNzdWVyX0lQQWRkcmVzc19Qcml2YXRl
QWRkcmVzc1NwYWNlMDIwEAYHKoZIzj0CAQYFK4EEAAYDHgAEL9fttIsOgkAGB8XE
qyXXJ9NUBaGb8FEjCP6vlqMlMCMwIQYDVR0fBBowGDAWohSnEgQQ/UMolIMglIcj
B0k4JnSJMjAKBggqhkjOPQQDAgMkADAhAg8Al3kpgvPcM4pKu+b8fk8CDn52m+ss
gmOrXxBtlRC7
-----END CERTIFICATE-----
