Certificate:
    Data:
        Version: 3 (0x2)
        Serial Number:
            28:1a:d6:fd:b4:90:53:3f:2d:1d:e6:3f:39:49:db:e9:c8:2b:3a:aa
        Signature Algorithm: ecdsa-with-SHA256
        Issuer: CN = X.509 GeneralName NC_permitted with mode: x400address_empty
        Validity
            Not Before: Jan  4 09:44:46 2020 GMT
            Not After : Dec 11 09:44:46 2119 GMT
        Subject: CN = X.509 GeneralName NC_permitted with mode: x400address_empty, 1.13.99.127.41 = X509Cert_Body_X509Exts_Ext_NC_PermittedSubtree_Name_X400Address_Unexpected
        Subject Public Key Info:
            Public Key Algorithm: id-ecPublicKey
                Public-Key: (112 bit)
                pub:
                    04:2f:d7:ed:b4:8b:0e:82:40:06:07:c5:c4:ab:25:
                    d7:27:d3:54:05:a1:9b:f0:51:23:08:fe:af:96
                ASN1 OID: secp112r1
        X509v3 extensions:
            X509v3 Name Constraints:
                Permitted:
                  X400Name:<unsupported>

    Signature Algorithm: ecdsa-with-SHA256
         30:21:02:0f:00:97:79:29:82:f3:dc:33:8a:4a:bb:e6:fc:7e:
         4f:02:0e:7e:76:9b:eb:2c:82:63:ab:5f:10:6d:95:10:bb
-----BEGIN CERTIFICATE-----
MIIBsTCCAXugAwIBAgIUKBrW/bSQUz8tHeY/OUnb6cgrOqowCgYIKoZIzj0EAwIw
RjFEMEIGA1UEAww7WC41MDkgR2VuZXJhbE5hbWUgTkNfcGVybWl0dGVkIHdpdGgg
bW9kZTogeDQwMGFkZHJlc3NfZW1wdHkwIBcNMjAwMTA0MDk0NDQ2WhgPMjExOTEy
MTEwOTQ0NDZaMIGcMUQwQgYDVQQDDDtYLjUwOSBHZW5lcmFsTmFtZSBOQ19wZXJt
aXR0ZWQgd2l0aCBtb2RlOiB4NDAwYWRkcmVzc19lbXB0eTFUMFIGBDVjfykMSlg1
MDlDZXJ0X0JvZHlfWDUwOUV4dHNfRXh0X05DX1Blcm1pdHRlZFN1YnRyZWVfTmFt
ZV9YNDAwQWRkcmVzc19VbmV4cGVjdGVkMDIwEAYHKoZIzj0CAQYFK4EEAAYDHgAE
L9fttIsOgkAGB8XEqyXXJ9NUBaGb8FEjCP6vlqMVMBMwEQYDVR0eBAowCKAGMASj
AjAAMAoGCCqGSM49BAMCAyQAMCECDwCXeSmC89wzikq75vx+TwIOfnab6yyCY6tf
EG2VELs=
-----END CERTIFICATE-----
