Certificate:
    Data:
        Version: 3 (0x2)
        Serial Number:
            28:1a:d6:fd:b4:90:53:3f:2d:1d:e6:3f:39:49:db:e9:c8:2b:3a:aa
        Signature Algorithm: ecdsa-with-SHA256
        Issuer: CN = X.509 GeneralName CRLDP_point with mode: ip_malformed
        Validity
            Not Before: Jan  4 09:44:46 2020 GMT
            Not After : Dec 11 09:44:46 2119 GMT
        Subject: CN = X.509 GeneralName CRLDP_point with mode: ip_malformed, 1.13.99.127.41 = X509Cert_Body_X509Exts_Ext_CRLDP_PointName_IPAddress_Malformed
        Subject Public Key Info:
            Public Key Algorithm: id-ecPublicKey
                Public-Key: (112 bit)
                pub:
                    04:2f:d7:ed:b4:8b:0e:82:40:06:07:c5:c4:ab:25:
                    d7:27:d3:54:05:a1:9b:f0:51:23:08:fe:af:96
                ASN1 OID: secp112r1
        X509v3 extensions:
            X509v3 CRL Distribution Points:

                Full Name:
                  IP Address:<invalid>

    Signature Algorithm: ecdsa-with-SHA256
         30:21:02:0f:00:97:79:29:82:f3:dc:33:8a:4a:bb:e6:fc:7e:
         4f:02:0e:7e:76:9b:eb:2c:82:63:ab:5f:10:6d:95:10:bb
-----BEGIN CERTIFICATE-----
MIIBnjCCAWigAwIBAgIUKBrW/bSQUz8tHeY/OUnb6cgrOqowCgYIKoZIzj0EAwIw
QDE+MDwGA1UEAww1WC41MDkgR2VuZXJhbE5hbWUgQ1JMRFBfcG9pbnQgd2l0aCBt
b2RlOiBpcF9tYWxmb3JtZWQwIBcNMjAwMTA0MDk0NDQ2WhgPMjExOTEyMTEwOTQ0
NDZaMIGKMT4wPAYDVQQDDDVYLjUwOSBHZW5lcmFsTmFtZSBDUkxEUF9wb2ludCB3
aXRoIG1vZGU6IGlwX21hbGZvcm1lZDFIMEYGBDVjfykMPlg1MDlDZXJ0X0JvZHlf
WDUwOUV4dHNfRXh0X0NSTERQX1BvaW50TmFtZV9JUEFkZHJlc3NfTWFsZm9ybWVk
MDIwEAYHKoZIzj0CAQYFK4EEAAYDHgAEL9fttIsOgkAGB8XEqyXXJ9NUBaGb8FEj
CP6vlqMaMBgwFgYDVR0fBA8wDTALoAmgB6cFBAOqu8wwCgYIKoZIzj0EAwIDJAAw
IQIPAJd5KYLz3DOKSrvm/H5PAg5+dpvrLIJjq18QbZUQuw==
-----END CERTIFICATE-----
