Certificate:
    Data:
        Version: 3 (0x2)
        Serial Number:
            28:1a:d6:fd:b4:90:53:3f:2d:1d:e6:3f:39:49:db:e9:c8:2b:3a:aa
        Signature Algorithm: ecdsa-with-SHA256
        Issuer: CN = X.509 GeneralName CRLDP_issuer with mode: dns_single_label
        Validity
            Not Before: Jan  4 09:44:46 2020 GMT
            Not After : Dec 11 09:44:46 2119 GMT
        Subject: CN = X.509 GeneralName CRLDP_issuer with mode: dns_single_label, 1.13.99.127.41 = X509Cert_Body_X509Exts_Ext_CRLDP_CRLIssuer_DNS_SingleLabel
        Subject Public Key Info:
            Public Key Algorithm: id-ecPublicKey
                Public-Key: (112 bit)
                pub:
                    04:2f:d7:ed:b4:8b:0e:82:40:06:07:c5:c4:ab:25:
                    d7:27:d3:54:05:a1:9b:f0:51:23:08:fe:af:96
                ASN1 OID: secp112r1
        X509v3 extensions:
            X509v3 CRL Distribution Points:

                CRL Issuer:
                  DNS:single-label

    Signature Algorithm: ecdsa-with-SHA256
         30:21:02:0f:00:97:79:29:82:f3:dc:33:8a:4a:bb:e6:fc:7e:
         4f:02:0e:7e:76:9b:eb:2c:82:63:ab:5f:10:6d:95:10:bb
-----BEGIN CERTIFICATE-----
MIIBqTCCAXOgAwIBAgIUKBrW/bSQUz8tHeY/OUnb6cgrOqowCgYIKoZIzj0EAwIw
RTFDMEEGA1UEAww6WC41MDkgR2VuZXJhbE5hbWUgQ1JMRFBfaXNzdWVyIHdpdGgg
bW9kZTogZG5zX3NpbmdsZV9sYWJlbDAgFw0yMDAxMDQwOTQ0NDZaGA8yMTE5MTIx
MTA5NDQ0NlowgYsxQzBBBgNVBAMMOlguNTA5IEdlbmVyYWxOYW1lIENSTERQX2lz
c3VlciB3aXRoIG1vZGU6IGRuc19zaW5nbGVfbGFiZWwxRDBCBgQ1Y38pDDpYNTA5
Q2VydF9Cb2R5X1g1MDlFeHRzX0V4dF9DUkxEUF9DUkxJc3N1ZXJfRE5TX1Npbmds
ZUxhYmVsMDIwEAYHKoZIzj0CAQYFK4EEAAYDHgAEL9fttIsOgkAGB8XEqyXXJ9NU
BaGb8FEjCP6vlqMfMB0wGwYDVR0fBBQwEjAQog6CDHNpbmdsZS1sYWJlbDAKBggq
hkjOPQQDAgMkADAhAg8Al3kpgvPcM4pKu+b8fk8CDn52m+ssgmOrXxBtlRC7
-----END CERTIFICATE-----
