Certificate:
    Data:
        Version: 3 (0x2)
        Serial Number:
            28:1a:d6:fd:b4:90:53:3f:2d:1d:e6:3f:39:49:db:e9:c8:2b:3a:aa
        Signature Algorithm: ecdsa-with-SHA256
        Issuer: CN = TODO
        Validity
            Not Before: Jan  4 09:44:46 2020 GMT
            Not After : Dec 11 09:44:46 2119 GMT
        Subject: CN = TODO
        Subject Public Key Info:
            Public Key Algorithm: id-ecPublicKey
                Public-Key: (112 bit)
                pub:
                    04:2f:d7:ed:b4:8b:0e:82:40:06:07:c5:c4:ab:25:
                    d7:27:d3:54:05:a1:9b:f0:51:23:08:fe:af:96
                ASN1 OID: secp112r1
        X509v3 extensions:
            X509v3 Subject Key Identifier:
                0...0...0...0...0...0...0...0...0...0...0...0...0...0...0...0...0...0...0...0...0...0...0..}0..y0..u0..q0..m0..i0..e0..a0..]0..Y0..U0..Q0..M0..I0..E0..A0..=0..90..50..10..-0..)0..%0..!0...0...0...0...0..0...0...0...0...0...0...0...0...0...0...0...0...0...0...0...0...0...0...0...0...0...0...0...0...0...0...0...0...0...0...0...0...0...0...0...0..}0..y0..u0..q0..m0..i0..e0..a0..]0..Y0..U0..Q0..M0..I0..E0..A0..=0..90..50..10..-0..)0..%0..!0...0...0...0...0..0...0...0...0..0..0..0..0..0..0..0..0..0..0..0..0..0..0..0..0..0..0..0..0..0..0..0..0..0..0..0..0..0..0..0..0..0..0..0..0..0..0..0..0..0..0..0~0|0z0x0v0t0r0p0n0l0j0h0f0d0b0`0^0\0Z0X0V0T0R0P0N0L0J0H0F0D0B0@0>0<0:08060402000.0,0*0(0&0$0"0 0.0.0.0.0.0.0.0.0.0.0
0.0.0.0.0.....F..0nj..|C..i/$...
            X509v3 Authority Key Identifier:
                keyid:05:82:46:02:E9:30:6E:6A:83:85:7C:43:07:A7:69:2F:24:B4:B3:17

            X509v3 Basic Constraints: critical
                CA:TRUE
    Signature Algorithm: ecdsa-with-SHA256
         30:21:02:0f:00:97:79:29:82:f3:dc:33:8a:4a:bb:e6:fc:7e:
         4f:02:0e:7e:76:9b:eb:2c:82:63:ab:5f:10:6d:95:10:bb
-----BEGIN CERTIFICATE-----
MIIECzCCA9WgAwIBAgIUKBrW/bSQUz8tHeY/OUnb6cgrOqowCgYIKoZIzj0EAwIw
DzENMAsGA1UEAwwEVE9ETzAgFw0yMDAxMDQwOTQ0NDZaGA8yMTE5MTIxMTA5NDQ0
NlowDzENMAsGA1UEAwwEVE9ETzAyMBAGByqGSM49AgEGBSuBBAAGAx4ABC/X7bSL
DoJABgfFxKsl1yfTVAWhm/BRIwj+r5ajggMyMIIDLjCCAvgGA1UdDgSCAu8wggLV
MIIC0TCCAs0wggLJMIICxTCCAsEwggK9MIICuTCCArUwggKxMIICrTCCAqkwggKl
MIICoTCCAp0wggKZMIIClTCCApEwggKNMIICiTCCAoUwggKBMIICfTCCAnkwggJ1
MIICcTCCAm0wggJpMIICZTCCAmEwggJdMIICWTCCAlUwggJRMIICTTCCAkkwggJF
MIICQTCCAj0wggI5MIICNTCCAjEwggItMIICKTCCAiUwggIhMIICHTCCAhkwggIV
MIICETCCAg0wggIJMIICBTCCAgEwggH9MIIB+TCCAfUwggHxMIIB7TCCAekwggHl
MIIB4TCCAd0wggHZMIIB1TCCAdEwggHNMIIByTCCAcUwggHBMIIBvTCCAbkwggG1
MIIBsTCCAa0wggGpMIIBpTCCAaEwggGdMIIBmTCCAZUwggGRMIIBjTCCAYkwggGF
MIIBgTCCAX0wggF5MIIBdTCCAXEwggFtMIIBaTCCAWUwggFhMIIBXTCCAVkwggFV
MIIBUTCCAU0wggFJMIIBRTCCAUEwggE9MIIBOTCCATUwggExMIIBLTCCASkwggEl
MIIBITCCAR0wggEZMIIBFTCCAREwggENMIIBCTCCAQUwggEBMIH+MIH7MIH4MIH1
MIHyMIHvMIHsMIHpMIHmMIHjMIHgMIHdMIHaMIHXMIHUMIHRMIHOMIHLMIHIMIHF
MIHCMIG/MIG8MIG5MIG2MIGzMIGwMIGtMIGqMIGnMIGkMIGhMIGeMIGbMIGYMIGV
MIGSMIGPMIGMMIGJMIGGMIGDMIGAMH4wfDB6MHgwdjB0MHIwcDBuMGwwajBoMGYw
ZDBiMGAwXjBcMFowWDBWMFQwUjBQME4wTDBKMEgwRjBEMEIwQDA+MDwwOjA4MDYw
NDAyMDAwLjAsMCowKDAmMCQwIjAgMB4wHDAaMBgwFjAUMBIwEDAOMAwwCjAIMAYw
BDACMAAEFAWCRgLpMG5qg4V8QwenaS8ktLMXMB8GA1UdIwQYMBaAFAWCRgLpMG5q
g4V8QwenaS8ktLMXMA8GA1UdEwEB/wQFMAMBAf8wCgYIKoZIzj0EAwIDJAAwIQIP
AJd5KYLz3DOKSrvm/H5PAg5+dpvrLIJjq18QbZUQuw==
-----END CERTIFICATE-----
