Certificate:
    Data:
        Version: 3 (0x2)
        Serial Number:
            28:1a:d6:fd:b4:90:53:3f:2d:1d:e6:3f:39:49:db:e9:c8:2b:3a:aa
        Signature Algorithm: ecdsa-with-SHA256
        Issuer: 2.5.4.1 = RDN 1, 2.5.4.2 = RDN 2, CN = RDN 3, SN = RDN 4, serialNumber = RDN 5, C = RDN 6, L = RDN 7, ST = RDN 8, street = RDN 9, O = RDN 10, OU = RDN 11, title = RDN 12, description = RDN 13, searchGuide = RDN 14, businessCategory = RDN 15, postalAddress = RDN 16, postalCode = RDN 17, postOfficeBox = RDN 18, physicalDeliveryOfficeName = RDN 19, telephoneNumber = RDN 20, telexNumber = RDN 21, teletexTerminalIdentifier = RDN 22, facsimileTelephoneNumber = RDN 23, x121Address = RDN 24, internationaliSDNNumber = RDN 25, registeredAddress = RDN 26, destinationIndicator = RDN 27, preferredDeliveryMethod = RDN 28, presentationAddress = RDN 29, supportedApplicationContext = RDN 30, member = RDN 31, owner = RDN 32, roleOccupant = RDN 33, seeAlso = RDN 34, userPassword = RDN 35, userCertificate = RDN 36, cACertificate = RDN 37, authorityRevocationList = RDN 38, certificateRevocationList = RDN 39, crossCertificatePair = RDN 40, name = RDN 41, GN = RDN 42, initials = RDN 43, generationQualifier = RDN 44, x500UniqueIdentifier = RDN 45, dnQualifier = RDN 46, enhancedSearchGuide = RDN 47, protocolInformation = RDN 48, distinguishedName = RDN 49
        Validity
            Not Before: Jan  4 09:44:46 2020 GMT
            Not After : Dec 11 09:44:46 2119 GMT
        Subject: CN = X.509 DistinguishedName issuer with mode: unusually_many_rdns, 1.13.99.127.41 = X509Cert_Body_Issuer_UnusuallyManyRDNs
        Subject Public Key Info:
            Public Key Algorithm: id-ecPublicKey
                Public-Key: (112 bit)
                pub:
                    04:2f:d7:ed:b4:8b:0e:82:40:06:07:c5:c4:ab:25:
                    d7:27:d3:54:05:a1:9b:f0:51:23:08:fe:af:96
                ASN1 OID: secp112r1
        X509v3 extensions:
            X509v3 Subject Key Identifier:
                05:82:46:02:E9:30:6E:6A:83:85:7C:43:07:A7:69:2F:24:B4:B3:17
            X509v3 Authority Key Identifier:
                keyid:05:82:46:02:E9:30:6E:6A:83:85:7C:43:07:A7:69:2F:24:B4:B3:17

            X509v3 Basic Constraints: critical
                CA:TRUE
    Signature Algorithm: ecdsa-with-SHA256
         30:21:02:0f:00:97:79:29:82:f3:dc:33:8a:4a:bb:e6:fc:7e:
         4f:02:0e:7e:76:9b:eb:2c:82:63:ab:5f:10:6d:95:10:bb
-----BEGIN CERTIFICATE-----
MIIEwDCCBIqgAwIBAgIUKBrW/bSQUz8tHeY/OUnb6cgrOqowCgYIKoZIzj0EAwIw
ggM4MQ4wDAYDVQQBDAVSRE4gMTEOMAwGA1UEAgwFUkROIDIxDjAMBgNVBAMMBVJE
TiAzMQ4wDAYDVQQEDAVSRE4gNDEOMAwGA1UEBQwFUkROIDUxDjAMBgNVBAYMBVJE
TiA2MQ4wDAYDVQQHDAVSRE4gNzEOMAwGA1UECAwFUkROIDgxDjAMBgNVBAkMBVJE
TiA5MQ8wDQYDVQQKDAZSRE4gMTAxDzANBgNVBAsMBlJETiAxMTEPMA0GA1UEDAwG
UkROIDEyMQ8wDQYDVQQNDAZSRE4gMTMxDzANBgNVBA4MBlJETiAxNDEPMA0GA1UE
DwwGUkROIDE1MQ8wDQYDVQQQDAZSRE4gMTYxDzANBgNVBBEMBlJETiAxNzEPMA0G
A1UEEgwGUkROIDE4MQ8wDQYDVQQTDAZSRE4gMTkxDzANBgNVBBQMBlJETiAyMDEP
MA0GA1UEFQwGUkROIDIxMQ8wDQYDVQQWDAZSRE4gMjIxDzANBgNVBBcMBlJETiAy
MzEPMA0GA1UEGAwGUkROIDI0MQ8wDQYDVQQZDAZSRE4gMjUxDzANBgNVBBoMBlJE
TiAyNjEPMA0GA1UEGwwGUkROIDI3MQ8wDQYDVQQcDAZSRE4gMjgxDzANBgNVBB0M
BlJETiAyOTEPMA0GA1UEHgwGUkROIDMwMQ8wDQYDVQQfDAZSRE4gMzExDzANBgNV
BCAMBlJETiAzMjEPMA0GA1UEIQwGUkROIDMzMQ8wDQYDVQQiDAZSRE4gMzQxDzAN
BgNVBCMMBlJETiAzNTEPMA0GA1UEJAwGUkROIDM2MQ8wDQYDVQQlDAZSRE4gMzcx
DzANBgNVBCYMBlJETiAzODEPMA0GA1UEJwwGUkROIDM5MQ8wDQYDVQQoDAZSRE4g
NDAxDzANBgNVBCkMBlJETiA0MTEPMA0GA1UEKgwGUkROIDQyMQ8wDQYDVQQrDAZS
RE4gNDMxDzANBgNVBCwMBlJETiA0NDEPMA0GA1UELQwGUkROIDQ1MQ8wDQYDVQQu
DAZSRE4gNDYxDzANBgNVBC8MBlJETiA0NzEPMA0GA1UEMAwGUkROIDQ4MQ8wDQYD
VQQxDAZSRE4gNDkwIBcNMjAwMTA0MDk0NDQ2WhgPMjExOTEyMTEwOTQ0NDZaMHox
RjBEBgNVBAMMPVguNTA5IERpc3Rpbmd1aXNoZWROYW1lIGlzc3VlciB3aXRoIG1v
ZGU6IHVudXN1YWxseV9tYW55X3JkbnMxMDAuBgQ1Y38pDCZYNTA5Q2VydF9Cb2R5
X0lzc3Vlcl9VbnVzdWFsbHlNYW55UkROczAyMBAGByqGSM49AgEGBSuBBAAGAx4A
BC/X7bSLDoJABgfFxKsl1yfTVAWhm/BRIwj+r5ajUzBRMB0GA1UdDgQWBBQFgkYC
6TBuaoOFfEMHp2kvJLSzFzAfBgNVHSMEGDAWgBQFgkYC6TBuaoOFfEMHp2kvJLSz
FzAPBgNVHRMBAf8EBTADAQH/MAoGCCqGSM49BAMCAyQAMCECDwCXeSmC89wzikq7
5vx+TwIOfnab6yyCY6tfEG2VELs=
-----END CERTIFICATE-----
