Certificate:
    Data:
        Version: 3 (0x2)
        Serial Number:
            28:1a:d6:fd:b4:90:53:3f:2d:1d:e6:3f:39:49:db:e9:c8:2b:3a:aa
        Signature Algorithm: ecdsa-with-SHA256
        Issuer: CN = RDN 3 + SN = RDN 4 + CN = RDN 3
        Validity
            Not Before: Jan  4 09:44:46 2020 GMT
            Not After : Dec 11 09:44:46 2119 GMT
        Subject: CN = X.509 DistinguishedName issuer with mode: rdn_duplicate_key_value, 1.13.99.127.41 = X509Cert_Body_Issuer_RDN_DuplicateSet_Key_Value
        Subject Public Key Info:
            Public Key Algorithm: id-ecPublicKey
                Public-Key: (112 bit)
                pub:
                    04:2f:d7:ed:b4:8b:0e:82:40:06:07:c5:c4:ab:25:
                    d7:27:d3:54:05:a1:9b:f0:51:23:08:fe:af:96
                ASN1 OID: secp112r1
        X509v3 extensions:
            X509v3 Subject Key Identifier:
                05:82:46:02:E9:30:6E:6A:83:85:7C:43:07:A7:69:2F:24:B4:B3:17
            X509v3 Authority Key Identifier:
                keyid:05:82:46:02:E9:30:6E:6A:83:85:7C:43:07:A7:69:2F:24:B4:B3:17

            X509v3 Basic Constraints: critical
                CA:TRUE
    Signature Algorithm: ecdsa-with-SHA256
         30:21:02:0f:00:97:79:29:82:f3:dc:33:8a:4a:bb:e6:fc:7e:
         4f:02:0e:7e:76:9b:eb:2c:82:63:ab:5f:10:6d:95:10:bb
-----BEGIN CERTIFICATE-----
MIIBwDCCAYqgAwIBAgIUKBrW/bSQUz8tHeY/OUnb6cgrOqowCgYIKoZIzj0EAwIw
LDEqMAwGA1UEAwwFUkROIDMwDAYDVQQEDAVSRE4gNDAMBgNVBAMMBVJETiAzMCAX
DTIwMDEwNDA5NDQ0NloYDzIxMTkxMjExMDk0NDQ2WjCBhzFKMEgGA1UEAwxBWC41
MDkgRGlzdGluZ3Vpc2hlZE5hbWUgaXNzdWVyIHdpdGggbW9kZTogcmRuX2R1cGxp
Y2F0ZV9rZXlfdmFsdWUxOTA3BgQ1Y38pDC9YNTA5Q2VydF9Cb2R5X0lzc3Vlcl9S
RE5fRHVwbGljYXRlU2V0X0tleV9WYWx1ZTAyMBAGByqGSM49AgEGBSuBBAAGAx4A
BC/X7bSLDoJABgfFxKsl1yfTVAWhm/BRIwj+r5ajUzBRMB0GA1UdDgQWBBQFgkYC
6TBuaoOFfEMHp2kvJLSzFzAfBgNVHSMEGDAWgBQFgkYC6TBuaoOFfEMHp2kvJLSz
FzAPBgNVHRMBAf8EBTADAQH/MAoGCCqGSM49BAMCAyQAMCECDwCXeSmC89wzikq7
5vx+TwIOfnab6yyCY6tfEG2VELs=
-----END CERTIFICATE-----
