Certificate:
    Data:
        Version: 3 (0x2)
        Serial Number:
            28:1a:d6:fd:b4:90:53:3f:2d:1d:e6:3f:39:49:db:e9:c8:2b:3a:aa
        Signature Algorithm: ecdsa-with-SHA256
        Issuer: CN = X.509 DistinguishedName subject with mode: unusually_many_rdns, 1.13.99.127.41 = X509Cert_Body_Subject_UnusuallyManyRDNs
        Validity
            Not Before: Jan  4 09:44:46 2020 GMT
            Not After : Dec 11 09:44:46 2119 GMT
        Subject: 2.5.4.1 = RDN 1, 2.5.4.2 = RDN 2, CN = RDN 3, SN = RDN 4, serialNumber = RDN 5, C = RDN 6, L = RDN 7, ST = RDN 8, street = RDN 9, O = RDN 10, OU = RDN 11, title = RDN 12, description = RDN 13, searchGuide = RDN 14, businessCategory = RDN 15, postalAddress = RDN 16, postalCode = RDN 17, postOfficeBox = RDN 18, physicalDeliveryOfficeName = RDN 19, telephoneNumber = RDN 20, telexNumber = RDN 21, teletexTerminalIdentifier = RDN 22, facsimileTelephoneNumber = RDN 23, x121Address = RDN 24, internationaliSDNNumber = RDN 25, registeredAddress = RDN 26, destinationIndicator = RDN 27, preferredDeliveryMethod = RDN 28, presentationAddress = RDN 29, supportedApplicationContext = RDN 30, member = RDN 31, owner = RDN 32, roleOccupant = RDN 33, seeAlso = RDN 34, userPassword = RDN 35, userCertificate = RDN 36, cACertificate = RDN 37, authorityRevocationList = RDN 38, certificateRevocationList = RDN 39, crossCertificatePair = RDN 40, name = RDN 41, GN = RDN 42, initials = RDN 43, generationQualifier = RDN 44, x500UniqueIdentifier = RDN 45, dnQualifier = RDN 46, enhancedSearchGuide = RDN 47, protocolInformation = RDN 48, distinguishedName = RDN 49
        Subject Public Key Info:
            Public Key Algorithm: id-ecPublicKey
                Public-Key: (112 bit)
                pub:
                    04:2f:d7:ed:b4:8b:0e:82:40:06:07:c5:c4:ab:25:
                    d7:27:d3:54:05:a1:9b:f0:51:23:08:fe:af:96
                ASN1 OID: secp112r1
        X509v3 extensions:
            X509v3 Subject Key Identifier:
                05:82:46:02:E9:30:6E:6A:83:85:7C:43:07:A7:69:2F:24:B4:B3:17
            X509v3 Authority Key Identifier:
                keyid:05:82:46:02:E9:30:6E:6A:83:85:7C:43:07:A7:69:2F:24:B4:B3:17

            X509v3 Basic Constraints: critical
                CA:TRUE
    Signature Algorithm: ecdsa-with-SHA256
         30:21:02:0f:00:97:79:29:82:f3:dc:33:8a:4a:bb:e6:fc:7e:
         4f:02:0e:7e:76:9b:eb:2c:82:63:ab:5f:10:6d:95:10:bb
-----BEGIN CERTIFICATE-----
MIIEwjCCBIygAwIBAgIUKBrW/bSQUz8tHeY/OUnb6cgrOqowCgYIKoZIzj0EAwIw
fDFHMEUGA1UEAww+WC41MDkgRGlzdGluZ3Vpc2hlZE5hbWUgc3ViamVjdCB3aXRo
IG1vZGU6IHVudXN1YWxseV9tYW55X3JkbnMxMTAvBgQ1Y38pDCdYNTA5Q2VydF9C
b2R5X1N1YmplY3RfVW51c3VhbGx5TWFueVJETnMwIBcNMjAwMTA0MDk0NDQ2WhgP
MjExOTEyMTEwOTQ0NDZaMIIDODEOMAwGA1UEAQwFUkROIDExDjAMBgNVBAIMBVJE
TiAyMQ4wDAYDVQQDDAVSRE4gMzEOMAwGA1UEBAwFUkROIDQxDjAMBgNVBAUMBVJE
TiA1MQ4wDAYDVQQGDAVSRE4gNjEOMAwGA1UEBwwFUkROIDcxDjAMBgNVBAgMBVJE
TiA4MQ4wDAYDVQQJDAVSRE4gOTEPMA0GA1UECgwGUkROIDEwMQ8wDQYDVQQLDAZS
RE4gMTExDzANBgNVBAwMBlJETiAxMjEPMA0GA1UEDQwGUkROIDEzMQ8wDQYDVQQO
DAZSRE4gMTQxDzANBgNVBA8MBlJETiAxNTEPMA0GA1UEEAwGUkROIDE2MQ8wDQYD
VQQRDAZSRE4gMTcxDzANBgNVBBIMBlJETiAxODEPMA0GA1UEEwwGUkROIDE5MQ8w
DQYDVQQUDAZSRE4gMjAxDzANBgNVBBUMBlJETiAyMTEPMA0GA1UEFgwGUkROIDIy
MQ8wDQYDVQQXDAZSRE4gMjMxDzANBgNVBBgMBlJETiAyNDEPMA0GA1UEGQwGUkRO
IDI1MQ8wDQYDVQQaDAZSRE4gMjYxDzANBgNVBBsMBlJETiAyNzEPMA0GA1UEHAwG
UkROIDI4MQ8wDQYDVQQdDAZSRE4gMjkxDzANBgNVBB4MBlJETiAzMDEPMA0GA1UE
HwwGUkROIDMxMQ8wDQYDVQQgDAZSRE4gMzIxDzANBgNVBCEMBlJETiAzMzEPMA0G
A1UEIgwGUkROIDM0MQ8wDQYDVQQjDAZSRE4gMzUxDzANBgNVBCQMBlJETiAzNjEP
MA0GA1UEJQwGUkROIDM3MQ8wDQYDVQQmDAZSRE4gMzgxDzANBgNVBCcMBlJETiAz
OTEPMA0GA1UEKAwGUkROIDQwMQ8wDQYDVQQpDAZSRE4gNDExDzANBgNVBCoMBlJE
TiA0MjEPMA0GA1UEKwwGUkROIDQzMQ8wDQYDVQQsDAZSRE4gNDQxDzANBgNVBC0M
BlJETiA0NTEPMA0GA1UELgwGUkROIDQ2MQ8wDQYDVQQvDAZSRE4gNDcxDzANBgNV
BDAMBlJETiA0ODEPMA0GA1UEMQwGUkROIDQ5MDIwEAYHKoZIzj0CAQYFK4EEAAYD
HgAEL9fttIsOgkAGB8XEqyXXJ9NUBaGb8FEjCP6vlqNTMFEwHQYDVR0OBBYEFAWC
RgLpMG5qg4V8QwenaS8ktLMXMB8GA1UdIwQYMBaAFAWCRgLpMG5qg4V8QwenaS8k
tLMXMA8GA1UdEwEB/wQFMAMBAf8wCgYIKoZIzj0EAwIDJAAwIQIPAJd5KYLz3DOK
Srvm/H5PAg5+dpvrLIJjq18QbZUQuw==
-----END CERTIFICATE-----
