Certificate:
    Data:
        Version: 3 (0x2)
        Serial Number:
            28:1a:d6:fd:b4:90:53:3f:2d:1d:e6:3f:39:49:db:e9:c8:2b:3a:aa
        Signature Algorithm: ecdsa-with-SHA256
        Issuer: CN = X.509 Extension IAP with error: malformed
        Validity
            Not Before: Jan  4 09:44:46 2020 GMT
            Not After : Dec 11 09:44:46 2119 GMT
        Subject: CN = X.509 Extension IAP with error: malformed, 1.13.99.127.41 = X509Cert_Body_X509Exts_Ext_IAP_Malformed_Undecodable
        Subject Public Key Info:
            Public Key Algorithm: id-ecPublicKey
                Public-Key: (112 bit)
                pub:
                    04:2f:d7:ed:b4:8b:0e:82:40:06:07:c5:c4:ab:25:
                    d7:27:d3:54:05:a1:9b:f0:51:23:08:fe:af:96
                ASN1 OID: secp112r1
        X509v3 extensions:
            X509v3 Inhibit Any Policy:
                ...
    Signature Algorithm: ecdsa-with-SHA256
         30:21:02:0f:00:97:79:29:82:f3:dc:33:8a:4a:bb:e6:fc:7e:
         4f:02:0e:7e:76:9b:eb:2c:82:63:ab:5f:10:6d:95:10:bb
-----BEGIN CERTIFICATE-----
MIIBbzCCATmgAwIBAgIUKBrW/bSQUz8tHeY/OUnb6cgrOqowCgYIKoZIzj0EAwIw
NDEyMDAGA1UEAwwpWC41MDkgRXh0ZW5zaW9uIElBUCB3aXRoIGVycm9yOiBtYWxm
b3JtZWQwIBcNMjAwMTA0MDk0NDQ2WhgPMjExOTEyMTEwOTQ0NDZaMHQxMjAwBgNV
BAMMKVguNTA5IEV4dGVuc2lvbiBJQVAgd2l0aCBlcnJvcjogbWFsZm9ybWVkMT4w
PAYENWN/KQw0WDUwOUNlcnRfQm9keV9YNTA5RXh0c19FeHRfSUFQX01hbGZvcm1l
ZF9VbmRlY29kYWJsZTAyMBAGByqGSM49AgEGBSuBBAAGAx4ABC/X7bSLDoJABgfF
xKsl1yfTVAWhm/BRIwj+r5ajDjAMMAoGA1UdNgQDqrvMMAoGCCqGSM49BAMCAyQA
MCECDwCXeSmC89wzikq75vx+TwIOfnab6yyCY6tfEG2VELs=
-----END CERTIFICATE-----
